((dp0
S'arm_dbg_args'
p1
S'-via:"c:\\Users\\Randy\\Documents\\MarmaladeGames\\OneTap\\build_onetap_vc12x\\OneTap_vc12x_arm_debug.via" -qemu'
p2
sS'game-icf'
p3
S''
p4
sS'dist'
p5
NsS'csproj'
p6
g4
sS'module_path_append'
p7
NsS'global_path'
p8
S'c:\\users\\randy\\documents\\marmaladegames'
p9
sS'system_path'
p10
S'c:\\marmalade\\7.3\\s3e\\makefile_builder'
p11
sS'android_x86_dbg_args'
p12
S'../../tools/DeployTool/DeployTool.exe --dir "c:\\Users\\Randy\\Documents\\MarmaladeGames\\OneTap\\build_onetap_vc12x"'
p13
sS'no-emit'
p14
NsS'arm-float-abi'
p15
g4
sS'arm_rel_rtsm_args'
p16
S'-via:"c:\\Users\\Randy\\Documents\\MarmaladeGames\\OneTap\\build_onetap_vc12x\\OneTap_vc12x_arm_release.via" -qemu'
p17
sS'amd64'
p18
NsS'line-width'
p19
I80
sS'gcc_dbg_args'
p20
S'-via:"c:\\Users\\Randy\\Documents\\MarmaladeGames\\OneTap\\build_onetap_vc12x\\OneTap_vc12x_gcc_debug.via" -qemu'
p21
sS'android-x86'
p22
NsS'x86_dbg_exe'
p23
S'c:/marmalade/7.3/s3e\\win32\\s3e_simulator_debug.exe'
p24
sS'disable-runtime-checks'
p25
NsS'release'
p26
NsS'no-make'
p27
NsS'optimise-size'
p28
NsS'output-name-debug'
p29
g4
sS'arm-fpu'
p30
g4
sS'proj_name'
p31
S'OneTap_vc12x'
p32
sS'rvct-version'
p33
S'none'
p34
sS'compiler'
p35
g4
sS'execute'
p36
NsS'compile-static'
p37
NsS'msvc-project'
p38
NsS'buildenv'
p39
S'VC12X'
p40
sS'quick'
p41
NsS'module_path'
p42
NsS'use-release-std-libs'
p43
NsS'using_perforce'
p44
I00
sS'tizen-x86'
p45
NsS'mips-s3e'
p46
NsS's3e-api-lib-name'
p47
g4
sS'ios-no-pic'
p48
NsS'shared-arm-lib'
p49
NsS'arm-cpu'
p50
g4
sS'compile-thumb'
p51
NsS'no-ide'
p52
NsS'msvc-version'
p53
S'6.0'
p54
sS'arm'
p55
NsS'builddir'
p56
g4
sS'compile-debug-as-release'
p57
I0
sS'arm-arch'
p58
g4
sS'brief'
p59
NsS'dll'
p60
NsS'buildenv-toolset'
p61
g4
sS'version'
p62
NsS'ccache'
p63
I0
sS'offline'
p64
NsS'ios-version'
p65
g4
sS'hub_data'
p66
g4
sS'fake_vc_call'
p67
I01
sS'jobs'
p68
I0
sS'linkflags'
p69
NsS'debug'
p70
NsS'xcode-build-order'
p71
g4
sS'gcc_rel_rtsm_args'
p72
S'-via:"c:\\Users\\Randy\\Documents\\MarmaladeGames\\OneTap\\build_onetap_vc12x\\OneTap_vc12x_gcc_release.via" -qemu'
p73
sS'done_defaults'
p74
I1
sS'path'
p75
NsS's3e-data-dir'
p76
S'c:/Users/Randy/Documents/MarmaladeGames/OneTap\\data'
p77
sS'enable-exceptions'
p78
NsS'osx-dll'
p79
NsS'extension'
p80
g4
sS'no-vc6'
p81
NsS'non-interactive'
p82
NsS'win32-console'
p83
NsS'dist-format'
p84
g4
sS's3e-force-arch'
p85
NsS'dump_defines'
p86
NsS'use_prebuilt'
p87
NsS'gcc-version'
p88
g4
sS'x86_dbg_args'
p89
S'-via:"c:\\Users\\Randy\\Documents\\MarmaladeGames\\OneTap\\build_onetap_vc12x\\OneTap_vc12x_debug.via"'
p90
sS'tizen_x86_dbg_args'
p91
g13
sS'arm-debugger'
p92
g4
sS'use_temp_extension'
p93
NsS'verbose'
p94
I0
sS'log'
p95
NsS'no-strip'
p96
NsS'rebuild'
p97
NsS'win32-simulator-dll'
p98
NsS'strict'
p99
NsS'mips_dbg_args'
p100
g13
sS'enable-global-path'
p101
NsS'cflags'
p102
NsS'dist-dir'
p103
g4
sS'jflags'
p104
NsS'csprojSDKRefs'
p105
g4
sS'tizen_x86_rel_exe'
p106
S'c:\\marmalade\\7.3\\s3e\\makefile_builder\\tool_launcher.exe'
p107
sS'test-assets'
p108
g4
sS'distcc'
p109
NsS'external-compiler'
p110
NsS'no-distcc'
p111
NsS'preinclude'
p112
NsS'using_sdk'
p113
I01
sS'nologo'
p114
NsS'warn-level'
p115
I2
sS'mips_dbg_exe'
p116
g107
sS'mkb_in'
p117
S'c:/Users/Randy/Documents/MarmaladeGames/OneTap/OneTap.mkb'
p118
sS'tizen_x86_dbg_exe'
p119
g107
sS'arm_dbg_exe'
p120
S'c:/marmalade/7.3/s3e\\bin\\armdebug.exe'
p121
sS'csprojDLLRef'
p122
NsS'tizen_x86_rel_args'
p123
g13
sS'android_x86_dbg_exe'
p124
g107
sS'test-config'
p125
g4
sS'list-targets'
p126
NsS'arm_rel_exe'
p127
g107
sS'arm_rel_args'
p128
g13
sS'makedeps'
p129
NsS'android_x86_rel_exe'
p130
g107
sS'default-buildenv'
p131
S'VC12X'
p132
sS'x86_rel_exe'
p133
g24
sS'preprocess-java'
p134
NsS'mips_rel_args'
p135
g13
sS'defines'
p136
NsS'lib'
p137
NsS'global_argv'
p138
(lp139
S'C:\\Marmalade\\7.3\\s3e\\makefile_builder\\mkb.py'
p140
aS'C:/Users/Randy/Documents/MarmaladeGames/OneTap/OneTap.mkb'
p141
aS'--buildenv=VC12X'
p142
aS'--fake-vc-call'
p143
asS'make'
p144
NsS'optimise-speed'
p145
NsS'internal'
p146
NsS'enable-stdinc'
p147
NsS'deploy-only'
p148
NsS'x86'
p149
NsS'deploy'
p150
g4
sS'x86_run_exe'
p151
S'c:/marmalade/7.3/s3e\\win32\\s3e_console.exe'
p152
sS'x86_rel_args'
p153
S'-via:"c:\\Users\\Randy\\Documents\\MarmaladeGames\\OneTap\\build_onetap_vc12x\\OneTap_vc12x_release.via"'
p154
sS'gcc_rel_args'
p155
g13
sS'mips'
p156
NsS'xcode-build-settings'
p157
g4
sS'incredibuild'
p158
NsS'strict-compile'
p159
NsS'use-auto-subdirs'
p160
NsS'mips_rel_exe'
p161
g107
sS'android_x86_rel_args'
p162
g13
sS'app-icf'
p163
g4
sS'deployargs'
p164
NsS'iosnativedebug'
p165
NsS'mkf_in'
p166
(lp167
S'c:\\marmalade\\7.3\\modules\\iwutil\\iwutil.mkf'
p168
aS'c:\\marmalade\\7.3\\modules\\third_party\\libjpeg\\libjpeg.mkf'
p169
aS'c:\\marmalade\\7.3\\modules\\third_party\\libpng\\libpng.mkf'
p170
aS'c:\\marmalade\\7.3\\modules\\third_party\\zlib\\zlib.mkf'
p171
asS'strict-mkb'
p172
NsS'executeargs'
p173
NsS'clean'
p174
NsS'no-asm'
p175
NsS'output-name'
p176
g4
sS'no-modules'
p177
NsS'find_define'
p178
g4
s(dp179
S'c:\\marmalade\\7.3\\s3e\\makefile_builder\\templates\\xcode_pbxuser.py'
p180
F1401412654.0
sS'c:\\marmalade\\7.3\\s3e\\makefile_builder\\plugins\\s3e_xcode.pyc'
p181
F1403055521.2948146
sS'c:\\marmalade\\7.3\\s3e\\makefile_builder\\plugins\\osx_scons.pyc'
p182
F1401413938.0
sS'c:\\marmalade\\7.3\\s3e\\makefile_builder\\extensions'
p183
F1403050895.7303419
sS'c:\\marmalade\\7.3\\s3e\\makefile_builder\\templates\\win8_sln.pyc'
p184
F1401413938.0
sS'c:\\marmalade\\7.3\\s3e\\makefile_builder\\plugins\\s3e_wp8.pyc'
p185
F1401413938.0
sS'c:\\marmalade\\7.3\\s3e\\makefile_builder\\mkb_launcher.exe'
p186
F1401413054.0
sS'c:\\marmalade\\7.3\\s3e\\makefile_builder\\plugins\\null.pyc'
p187
F1401413936.0
sS'c:\\marmalade\\7.3\\s3e\\makefile_builder\\plugins\\s3e_web.pyc'
p188
F1401413936.0
sS'c:\\marmalade\\7.3\\s3e\\makefile_builder\\plugins\\SConsEmitter.pyc'
p189
F1401413936.0
sS'c:\\marmalade\\7.3\\s3e\\makefile_builder\\mkb_util.pyc'
p190
F1401413936.0
sS'c:\\marmalade\\7.3\\s3e\\makefile_builder\\templates\\ws8_csproj_user.pyc'
p191
F1401413938.0
sS'c:\\marmalade\\7.3\\s3e\\makefile_builder\\mkb_upstream.pyc'
p192
F1401413936.0
sS'c:\\marmalade\\7.3\\s3e\\makefile_builder\\templates\\win8_csproj.pyc'
p193
F1401413938.0
sS'c:\\marmalade\\7.3\\s3e\\makefile_builder\\docs\\deprecated.options.txt'
p194
F1401412654.0
sS'c:\\marmalade\\7.3\\s3e\\makefile_builder\\templates\\wp8_csproj_user.pyc'
p195
F1401413938.0
sS'c:\\marmalade\\7.3\\s3e\\makefile_builder\\extensions\\make_dist.py'
p196
F1401412654.0
sS'c:\\marmalade\\7.3\\s3e\\makefile_builder\\docs\\deprecated.defines.txt'
p197
F1401412654.0
sS'c:\\marmalade\\7.3\\s3e\\makefile_builder\\templates\\wp8_csproj.pyc'
p198
F1401413938.0
sS'c:\\marmalade\\7.3\\s3e\\makefile_builder\\templates\\vc8_user.pyc'
p199
F1401413938.0
sS'c:\\marmalade\\7.3\\s3e\\makefile_builder\\plugins\\wp8_wp8.pyc'
p200
F1401413938.0
sS'c:\\marmalade\\7.3\\s3e\\makefile_builder\\deployment.pyc'
p201
F1401413936.0
sS'c:\\marmalade\\7.3\\s3e\\makefile_builder\\docs\\mkb.defines.txt'
p202
F1401412654.0
sS'c:\\marmalade\\7.3\\s3e\\makefile_builder\\plugins'
p203
F1403055521.2938144
sS'c:\\marmalade\\7.3\\s3e\\makefile_builder\\templates\\wp8_sln.pyc'
p204
F1401413938.0
sS'c:\\marmalade\\7.3\\s3e\\makefile_builder\\templates\\rvct_linker_script'
p205
F1401412654.0
sS'c:\\marmalade\\7.3\\s3e\\makefile_builder\\mkb_main.pyc'
p206
F1401413936.0
sS'c:\\marmalade\\7.3\\s3e\\makefile_builder\\templates\\win32_vcxproj_filters.pyc'
p207
F1401413938.0
sS'c:\\marmalade\\7.3\\s3e\\makefile_builder\\templates\\xcode4_DeployTool.xcscheme'
p208
F1401412654.0
sS'c:\\marmalade\\7.3\\s3e\\makefile_builder\\plugins\\s3e_ws81.pyc'
p209
F1401413938.0
sS'c:\\marmalade\\7.3\\s3e\\makefile_builder\\templates\\scons.pyc'
p210
F1401413938.0
sS'c:\\marmalade\\7.3\\s3e\\makefile_builder\\templates\\ws8_csproj.pyc'
p211
F1401413938.0
sS'c:\\marmalade\\7.3\\s3e\\makefile_builder\\templates'
p212
F1403050895.7253418
sS'c:\\marmalade\\7.3\\s3e\\makefile_builder\\plugins\\s3e_scons.pyc'
p213
F1401413936.0
sS'c:\\marmalade\\7.3\\s3e\\makefile_builder\\plugins\\XcodeEmitter.py'
p214
F1401412654.0
sS'c:\\marmalade\\7.3\\s3e\\makefile_builder\\templates\\win32_dsp.pyc'
p215
F1401413938.0
sS'c:\\marmalade\\7.3\\s3e\\makefile_builder\\plugins\\s3e_qmake.py'
p216
F1401412654.0
sS'c:\\marmalade\\7.3\\s3e\\makefile_builder\\mkb.py'
p217
F1401412654.0
sS'c:\\marmalade\\7.3\\s3e\\makefile_builder\\templates\\win32_sln.pyc'
p218
F1401413938.0
sS'c:\\marmalade\\7.3\\s3e\\makefile_builder\\plugins\\linux_scons.pyc'
p219
F1401413938.0
sS'c:\\marmalade\\7.3\\s3e\\makefile_builder\\templates\\ws81_ext_csproj.pyc'
p220
F1401413938.0
sS'c:\\marmalade\\7.3\\s3e\\makefile_builder\\templates\\win8_vcxproj.pyc'
p221
F1401413938.0
sS'c:\\marmalade\\7.3\\s3e\\makefile_builder\\templates\\win32_vcxproj.pyc'
p222
F1401413938.0
sS'c:\\marmalade\\7.3\\s3e\\makefile_builder\\templates\\vc7_suo.pyc'
p223
F1401413938.0
sS'c:\\marmalade\\7.3\\s3e\\makefile_builder\\templates\\make.py'
p224
F1401412654.0
sS'c:\\marmalade\\7.3\\s3e\\makefile_builder\\templates\\wp8_vcxproj.pyc'
p225
F1401413938.0
sS'c:\\marmalade\\7.3\\s3e\\makefile_builder\\plugins\\MakeEmitter.pyc'
p226
F1401413936.0
sS'c:\\marmalade\\7.3\\s3e\\makefile_builder\\plugins\\deploy.pyc'
p227
F1401413936.0
sS'c:\\marmalade\\7.3\\s3e\\makefile_builder\\plugins\\VisualStudioEmitter.pyc'
p228
F1401413936.0
sS'c:\\marmalade\\7.3\\s3e\\makefile_builder\\plugins\\ws81_ws81.pyc'
p229
F1401413938.0
sS'c:\\marmalade\\7.3\\s3e\\makefile_builder\\docs\\parse_options.pyc'
p230
F1401413938.0
sS'c:\\marmalade\\7.3\\s3e\\makefile_builder\\templates\\win32_dsw.pyc'
p231
F1401413938.0
sS'c:\\marmalade\\7.3\\s3e\\makefile_builder\\plugins\\s3e_make.pyc'
p232
F1401413936.0
sS'c:\\marmalade\\7.3\\s3e\\makefile_builder\\templates\\ws8_sln.pyc'
p233
F1401413938.0
sS'c:\\marmalade\\7.3\\s3e\\makefile_builder\\templates\\ws81_vcxproj.pyc'
p234
F1401413938.0
sS'c:\\marmalade\\7.3\\s3e\\makefile_builder\\templates\\win8_csproj_user.pyc'
p235
F1401413938.0
sS'c:\\marmalade\\7.3\\s3e\\makefile_builder\\templates\\ws81_ext_sln.pyc'
p236
F1401413938.0
sS'c:\\marmalade\\7.3\\s3e\\makefile_builder\\plugins\\XcodeEmitter.pyc'
p237
F1403055518.5596581
sS'c:\\marmalade\\7.3\\s3e\\makefile_builder\\templates\\mips_linker_script'
p238
F1401412654.0
sS'c:\\marmalade\\7.3\\s3e\\makefile_builder\\docs'
p239
F1403050895.764344
sS'c:\\marmalade\\7.3\\s3e\\makefile_builder\\templates\\xcode4_arm.xcscheme'
p240
F1401412654.0
sS'c:\\marmalade\\7.3\\s3e\\makefile_builder\\templates\\ws81_csproj.pyc'
p241
F1401413938.0
sS'c:\\marmalade\\7.3\\s3e\\makefile_builder\\templates\\ws8_ext_sln.pyc'
p242
F1401413938.0
sS'c:\\marmalade\\7.3\\s3e\\makefile_builder\\plugins\\Emitter.pyc'
p243
F1401413936.0
sS'c:\\marmalade\\7.3\\s3e\\makefile_builder\\templates\\template.opt'
p244
F1401412654.0
sS'c:\\marmalade\\7.3\\s3e\\makefile_builder\\plugins\\vc6_utils.pyc'
p245
F1401413936.0
sS'c:\\marmalade\\7.3\\s3e\\makefile_builder\\templates\\linker_script'
p246
F1401412654.0
sS'c:\\marmalade\\7.3\\s3e\\makefile_builder\\templates\\xcode4.xcscheme'
p247
F1401412654.0
sS'c:\\marmalade\\7.3\\s3e\\makefile_builder\\plugins\\Win8Emitter.pyc'
p248
F1401413938.0
sS'c:\\marmalade\\7.3\\s3e\\makefile_builder\\templates\\Info.plist'
p249
F1401412654.0
sS'c:\\marmalade\\7.3\\s3e\\makefile_builder\\plugins\\s3e_xcode.py'
p250
F1401412654.0
sS'c:\\marmalade\\7.3\\s3e\\makefile_builder\\docs\\options.txt'
p251
F1401412654.0
sS'c:\\marmalade\\7.3\\s3e\\makefile_builder\\templates\\ws81_csproj_user.pyc'
p252
F1401413938.0
sS'c:\\marmalade\\7.3\\s3e\\makefile_builder\\templates\\qmake.py'
p253
F1401412654.0
sS'c:\\marmalade\\7.3\\s3e\\makefile_builder\\plugins\\win32_vc6.pyc'
p254
F1401413938.0
sS'c:\\marmalade\\7.3\\s3e\\makefile_builder\\plugins\\ws8_ws8.pyc'
p255
F1401413938.0
sS'c:\\marmalade\\7.3\\s3e\\makefile_builder\\plugins\\osx_xcode.pyc'
p256
F1401413938.0
sS'c:\\marmalade\\7.3\\s3e\\makefile_builder\\templates\\ws81_sln.pyc'
p257
F1401413938.0
sS'c:\\marmalade\\7.3\\s3e\\makefile_builder\\templates\\win32_vcproj.pyc'
p258
F1401413938.0
sS'c:\\marmalade\\7.3\\s3e\\makefile_builder\\plugins\\s3e_vc6.pyc'
p259
F1401413936.0
sS'c:\\marmalade\\7.3\\s3e\\makefile_builder\\mkb_option.pyc'
p260
F1401413936.0
sS'c:\\marmalade\\7.3\\s3e\\makefile_builder\\templates\\vc6_opt.pyc'
p261
F1401413938.0
sS'c:\\marmalade\\7.3\\s3e\\makefile_builder\\templates\\win8_ext_csproj.pyc'
p262
F1401413938.0
sS'c:\\marmalade\\7.3\\s3e\\makefile_builder\\plugins\\s3e_win8.pyc'
p263
F1401413938.0
sS'c:\\marmalade\\7.3\\s3e\\makefile_builder\\templates\\template.suo'
p264
F1401412654.0
sS'c:\\marmalade\\7.3\\s3e\\makefile_builder\\templates\\ws8_vcxproj.pyc'
p265
F1401413938.0
sS'c:\\marmalade\\7.3\\s3e\\makefile_builder\\templates\\vc10_user.pyc'
p266
F1401413938.0
sS'c:\\marmalade\\7.3\\s3e\\makefile_builder\\templates\\wp8_ext_csproj.pyc'
p267
F1401413938.0
sS'c:\\marmalade\\7.3\\s3e\\makefile_builder\\plugins\\java.pyc'
p268
F1401413936.0
sS'c:\\marmalade\\7.3\\s3e\\makefile_builder\\templates\\MainWindow.xib'
p269
F1401412654.0
sS'c:\\marmalade\\7.3\\s3e\\makefile_builder\\templates\\qmake_user.py'
p270
F1401412654.0
sS'c:\\marmalade\\7.3\\s3e\\makefile_builder\\plugins\\win8_utils.pyc'
p271
F1401413936.0
sS'c:\\marmalade\\7.3\\s3e\\makefile_builder\\templates\\xcode.py'
p272
F1401412654.0
sS'c:\\marmalade\\7.3\\s3e\\makefile_builder\\mkb_parser.pyc'
p273
F1401413936.0
sS'c:\\marmalade\\7.3\\s3e\\makefile_builder\\plugins\\xcode4_schememanagement.pyc'
p274
F1403055518.6856651
sS'c:\\marmalade\\7.3\\s3e\\makefile_builder\\plugins\\s3e_qmake.pyc'
p275
F1403055519.9997404
sS'c:\\marmalade\\7.3\\s3e\\makefile_builder\\templates\\ws8_ext_csproj.pyc'
p276
F1401413938.0
sS'c:\\marmalade\\7.3\\s3e\\makefile_builder\\plugins\\S3EEmitter.pyc'
p277
F1401413936.0
sS'c:\\marmalade\\7.3\\s3e\\makefile_builder\\plugins\\xcode4_schememanagement.py'
p278
F1401412654.0
sS'c:\\marmalade\\7.3\\s3e\\makefile_builder\\plugins\\s3e_ws8.pyc'
p279
F1401413938.0
sS'c:\\marmalade\\7.3\\s3e\\makefile_builder\\mkb_globals.pyc'
p280
F1401413936.0
sS'c:\\marmalade\\7.3\\s3e\\makefile_builder\\templates\\gdb_start.txt'
p281
F1401412654.0
sS'c:\\marmalade\\7.3\\s3e\\makefile_builder\\docs\\deployment_options.txt'
p282
F1401412654.0
sS'c:\\marmalade\\7.3\\s3e\\makefile_builder\\plugins\\vc7_utils.pyc'
p283
F1401413936.0
sS'c:\\marmalade\\7.3\\s3e\\makefile_builder\\tool_launcher.exe'
p284
F1401413054.0
sS'c:\\marmalade\\7.3\\s3e\\makefile_builder\\plugins\\iphone.pyc'
p285
F1401413938.0
sccopy_reg
_reconstructor
p286
(cmkb_main
MkbFile
p287
c__builtin__
object
p288
Ntp289
Rp290
(dp291
g5
(lp292
sS'target_name'
p293
S'OneTap'
p294
sS'current_file'
p295
g118
sS'package_path'
p296
(lp297
sS'post_build'
p298
(lp299
(lp300
S'c:/marmalade/7.3/s3e/tools'
p301
aS'C:\\Marmalade\\7.3\\s3e\\python\\python.exe .\\process_map.py "$(TargetPath)"'
p302
aa(S'c:\\marmalade\\7.3\\s3e\\bin'
p303
S'"s3e_plink" -l "$(TargetPath)" '
p304
g149
tp305
asS'librarys'
p306
(lp307
g286
(cmkb_main
Library
p308
g288
Ntp309
Rp310
(dp311
S'name'
p312
S'vc6_compat.lib'
p313
sS'expand_name'
p314
I00
sS'include_spec_rvct_objs'
p315
(lp316
sS'include_all_objs'
p317
I00
sS'share_arm'
p318
I00
sS'arch'
p319
S'x86'
p320
sS'nodebug'
p321
I00
sg35
Nsbag286
(g308
g288
Ntp322
Rp323
(dp324
g312
S'iwutil'
p325
sg314
I01
sg315
(lp326
sg317
Nsg318
Nsg319
Nsg321
I00
sg35
Nsbag286
(g308
g288
Ntp327
Rp328
(dp329
g312
S'jpeg'
p330
sg314
I01
sg315
g326
sg317
Nsg318
Nsg319
Nsg321
I00
sg35
Nsbag286
(g308
g288
Ntp331
Rp332
(dp333
g312
S'z'
p334
sg314
I01
sg315
g326
sg317
Nsg318
Nsg319
Nsg321
I00
sg35
Nsbag286
(g308
g288
Ntp335
Rp336
(dp337
g312
S'png'
p338
sg314
I01
sg315
g326
sg317
Nsg318
Nsg319
Nsg321
I00
sg35
Nsbag286
(g308
g288
Ntp339
Rp340
(dp341
g312
S's3e_cpp'
p342
sg314
I01
sg315
g316
sg317
I00
sg318
I00
sg319
Nsg321
I00
sg35
Nsbag286
(g308
g288
Ntp343
Rp344
(dp345
g312
S's3e'
p346
sg314
I01
sg315
(lp347
S'iwcrt.o'
p348
asg317
I00
sg318
I00
sg319
Nsg321
I00
sg35
Nsbag286
(g308
g288
Ntp349
Rp350
(dp351
g312
S's3e_api'
p352
sg314
I01
sg315
g316
sg317
I00
sg318
I00
sg319
S'x86'
p353
sg321
I01
sg35
Nsbag286
(g308
g288
Ntp354
Rp355
(dp356
g312
S's3e_api'
p357
sg314
I01
sg315
g316
sg317
I00
sg318
I00
sg319
S'!x86'
p358
sg321
I01
sg35
Nsbag286
(g308
g288
Ntp359
Rp360
(dp361
g312
S'stdc++'
p362
sg314
I00
sg315
g316
sg317
I00
sg318
I00
sg319
S'mips'
p363
sg321
I00
sg35
Nsbag286
(g308
g288
Ntp364
Rp365
(dp366
g312
S'c'
p367
sg314
I00
sg315
g316
sg317
I00
sg318
I00
sg319
S'mips'
p368
sg321
I00
sg35
Nsbag286
(g308
g288
Ntp369
Rp370
(dp371
g312
S'm'
p372
sg314
I00
sg315
g316
sg317
I00
sg318
I00
sg319
S'mips'
p373
sg321
I00
sg35
Nsbag286
(g308
g288
Ntp374
Rp375
(dp376
g312
S'gcc'
p377
sg314
I00
sg315
g316
sg317
I00
sg318
I00
sg319
S'mips'
p378
sg321
I00
sg35
Nsbag286
(g308
g288
Ntp379
Rp380
(dp381
g312
S'stdc++'
p382
sg314
I00
sg315
g316
sg317
I00
sg318
I00
sg319
S'gcc_x86_android'
p383
sg321
I00
sg35
Nsbag286
(g308
g288
Ntp384
Rp385
(dp386
g312
g367
sg314
I00
sg315
g316
sg317
I00
sg318
I00
sg319
S'gcc_x86_android'
p387
sg321
I00
sg35
Nsbag286
(g308
g288
Ntp388
Rp389
(dp390
g312
g372
sg314
I00
sg315
g316
sg317
I00
sg318
I00
sg319
S'gcc_x86_android'
p391
sg321
I00
sg35
Nsbag286
(g308
g288
Ntp392
Rp393
(dp394
g312
S'gcc'
p395
sg314
I00
sg315
g316
sg317
I00
sg318
I00
sg319
S'gcc_x86_android'
p396
sg321
I00
sg35
NsbasS'library_paths'
p397
(lp398
g286
(cmkb_main
LibraryPath
p399
g288
Ntp400
Rp401
(dp402
S'expand_path'
p403
I01
sg312
S'c:/marmalade/7.3/modules/iwutil'
p404
sbag286
(g399
g288
Ntp405
Rp406
(dp407
g403
I01
sg312
S'c:/marmalade/7.3/modules/third_party/libjpeg'
p408
sbag286
(g399
g288
Ntp409
Rp410
(dp411
g403
I01
sg312
S'c:/marmalade/7.3/modules/third_party/zlib'
p412
sbag286
(g399
g288
Ntp413
Rp414
(dp415
g403
I01
sg312
S'c:/marmalade/7.3/modules/third_party/libpng'
p416
sbag286
(g399
g288
Ntp417
Rp418
(dp419
g403
I01
sg312
S'c:/marmalade/7.3/s3e'
p420
sbasS'macros'
p421
(dp422
S'IW_USE_CALLSTACK'
p423
NsS'IW_PLATFORM_S3E'
p424
NsS'I3D_PLATFORM_S3E'
p425
NsS'IW_MKF_IWUTIL'
p426
NsS'S3E_INCLUDE_LEGACY'
p427
NsS'IW_SDK'
p428
NsS'__S3E__'
p429
NsS'IW_USE_ASSERTIONS'
p430
NsS'_CRT_SECURE_NO_DEPRECATE'
p431
NsS'IW_APP_NAME'
p432
S'"OneTap"'
p433
sS'IW_MKF_LIBJPEG'
p434
NsS'I3D_OS_S3E'
p435
NsS'IW_APP_VERSION'
p436
S'"1.0"'
p437
sS'IW_DEBUG'
p438
NsS'IW_USE_TRACING'
p439
NsS'IW_MKF_ZLIB'
p440
NsS'IW_MKF_LIBPNG'
p441
NssS'done_warnings'
p442
(dp443
sS'subprojects'
p444
(dp445
g170
S'libpng'
p446
sg168
S'iwutil'
p447
sg171
S'zlib'
p448
sg169
S'libjpeg'
p449
ssS'deployments'
p450
(dp451
S'Default'
p452
g286
(cdeployment
Deployment
p453
g288
Ntp454
Rp455
(dp456
S'got_version'
p457
I0
sS'assets'
p458
g452
sS'mkb'
p459
g290
sS'target'
p460
Nsg319
(lp461
sS'options'
p462
(dp463
S'iphone-link-lib'
p464
(lp465
sS'game-icf'
p466
NsS'winmobile-icon32'
p467
NsS'ws8-logo-image150x150'
p468
NsS'ws81-product-version'
p469
NsS'osx-ext-dll'
p470
(lp471
sS'iphone-provisioning-profile'
p472
NsS'ws8-splash-screen-image620x300'
p473
NsS'ws8-ext-capabilities'
p474
(lp475
sS'android-icon-hdpi'
p476
NsS'brew-icon-large'
p477
NsS'iphone-splash-full-orient'
p478
NsS'wp8-tile-fliptemplate-supports-large'
p479
NsS'iphone-show-status-bar'
p480
NsS'roku-requires-mkv'
p481
NsS'long-caption'
p482
NsS'android-pkgname'
p483
NsS'blackberry-permissions-read-device-identifying-information'
p484
NsS'ws81-certificate-end-date'
p485
NsS'psp-dlgcontentid'
p486
NsS'target-folder'
p487
NsS'tizen-dist1-CA-path'
p488
NsS'symbian-icon2-format'
p489
NsS'iphone-region'
p490
NsS'uiq3-icon3-mask'
p491
NsS'brew-encoding'
p492
NsS'android-x86'
p493
NsS'nds-initialcode'
p494
NsS'iphone-persistent-wifi'
p495
NsS'psp-snd0'
p496
NsS'osx-signing-identity-inst'
p497
NsS'winmobile-install-folder'
p498
NsS'android-external-res'
p499
(lp500
sS'ws8-product-version'
p501
NsS'brew-priviledges'
p502
NsS'iphone-icon-ipad-search'
p503
NsS'iphone-icon-ipad'
p504
NsS'roku-hidden'
p505
NsS'psp-titlename'
p506
NsS'symbian-icon1-mask'
p507
NsS'psp-parentallevel'
p508
NsS'splashscreen-use-all'
p509
NsS'wp8-author'
p510
NsS'symbian-disable-ecompxl'
p511
NsS'splashscreen-auto-onblack'
p512
NsS'win32-ext-dll'
p513
(lp514
sS'iphone-development-key'
p515
NsS'winmobile-icon48'
p516
NsS'android-unsigned'
p517
NsS'osx-appstore-category'
p518
NsS'version-revision'
p519
NsS'roku-icon-focus-sd'
p520
NsS'android-keystore'
p521
NsS'winmobile-png90'
p522
NsS'iphone-icon-ipad-high-res'
p523
NsS'iphone-disable-ipad'
p524
NsS'wp8-product-id'
p525
NsS'ws81-splash-screen-background'
p526
NsS'wp8-ext-capabilities'
p527
(lp528
sS'iphone-ipad-only'
p529
NsS'symbian-icon1-mask-black'
p530
NsS'iphone-bundle-localisations'
p531
NsS'winmobile-png60'
p532
NsS'blackberry-permissions-access-shared'
p533
NsS'blackberry-author'
p534
NsS'android-icon-xxxhdpi'
p535
NsS'olddeploytoolstyle'
p536
NsS'android_icon_gallery'
p537
NsS'winmobile-cab-compress'
p538
NsS'ws81-ext-managed-dll'
p539
(lp540
sS'win32-icon'
p541
NsS'symbian-key'
p542
NsS'app-icf'
p543
NsS'blackberry-storepass'
p544
NsS'wp8-tile-fliptemplate-back-title'
p545
NsS'brew-compress-loader'
p546
NsS'win32-pref-windowposy'
p547
NsS'win32-pref-windowposx'
p548
NsS'roku-requires-audiometadata'
p549
NsS'wp8-exclude-low-mem'
p550
NsS'wp8-tile-fliptemplate-title'
p551
NsS'iphone-icon-ipad-search-high-res'
p552
NsS'iphone-link-libdir'
p553
(lp554
sS'blackberry-permissions-read-geolocation'
p555
NsS'winmobile-nouninstall'
p556
NsS'tizen-signed'
p557
NsS'android-extra-application-manifest'
p558
(lp559
sS'ws8-ext-native-dll'
p560
(lp561
sS'symbian-icon2-mask'
p562
NsS'iphone-backgroundmode-audio'
p563
NsS'webos-memory'
p564
NsS'android-keypass'
p565
NsS'name'
p566
NsS'uiq3-icon2-format'
p567
NsS'roku-splash-screen-sd'
p568
NsS'auto-derbh'
p569
NsS'roku-icon-side-sd'
p570
NsS'symbian-maxheapsize'
p571
NsS'nds-publicsavedatasize'
p572
NsS'splashscreen'
p573
NsS'brew-mif'
p574
NsS'iphone-icon-settings-high-res'
p575
NsS'android-manifest'
p576
NsS'ws81-splash-screen-image620x300'
p577
NsS's3e-compression'
p578
NsS'tizen-author-password'
p579
NsS'wp8-tile-fliptemplate-back-content'
p580
NsS'symbian-icon1'
p581
NsS'symbian-icon2'
p582
NsS'android-extra-styles-file'
p583
NsS'nds-bannertitle-jp'
p584
NsS'osx-sign-for-store'
p585
NsS'symbian7-uid'
p586
NsS'wp8-tile-fliptemplate-large-back-content'
p587
NsS'nds-bannertitle-cn'
p588
NsS'iphone-distribution-key'
p589
NsS'android-icon-gallery'
p590
NsS'blackberry-keystore'
p591
NsS'iphone-nosign'
p592
NsS'caption'
p593
NsS'android-extra-manifest'
p594
(lp595
sS'android-icon-xxhdpi'
p596
NsS'version-minor'
p597
NsS'iphone-link-libdirs'
p598
(lp599
sS'iphone-icon-large'
p600
NsS'symbian-keypwd'
p601
NsS'symbian8-uid'
p602
NsS'symbian-cert-key'
p603
NsS'winmobile-ampd-part-number'
p604
NsS'arch'
p605
NsS'nds-romheadertemplate'
p606
NsS'webos-icon'
p607
NsS'psp-dlgprotectdocument'
p608
NsS'ws8-splash-screen-background'
p609
NsS'android-icon-mdpi'
p610
NsS'nds-icon'
p611
NsS'ws8-custom-manifest-fill'
p612
NsS'iphone-development-cert'
p613
NsS'blackberry-phone-icon'
p614
NsS'iphone-enable-4inch-retina'
p615
NsS'ws8-custom-manifest'
p616
NsS'version-major'
p617
NsS'wp8-genre-isgame'
p618
NsS'uiq3-uid'
p619
NsS'iphone-splash-retina-generate'
p620
NsS'tizen-hw-acceleration'
p621
NsS'iphone_bundle_localisations'
p622
NsS'tizen-dist1-key'
p623
NsS'wp8-custom-manifest'
p624
NsS'nds-bannertitle-ge'
p625
NsS'iphone-sign-for-distribution'
p626
NsS'wp8-tile-fliptemplate-medium-back-image'
p627
NsS'wp8-publisher-id'
p628
NsS'icon'
p629
NsS'wp8-exclude-wxga'
p630
NsS'uiq3-icon2-mask'
p631
NsS'iphone-splashscreen-portrait'
p632
NsS'iphone-icon-high-res'
p633
NsS'ws81-distribution-pfx-password'
p634
NsS'playbook-author'
p635
NsS'android-icon-xhdpi'
p636
NsS'linux-ext-lib'
p637
(lp638
sS'blackberry-permissions-access-internet'
p639
NsS'wp8-exclude-720p'
p640
NsS'lgtv-use-drm'
p641
NsS'symbian-platsecflags'
p642
NsS'ws8-description'
p643
NsS'blackberry-playbook-icon'
p644
NsS'copyright'
p645
NsS'version'
p646
NsS'ws81-logo-image150x150'
p647
NsS'osx-signing-identity-app'
p648
NsS'tizen-project-url'
p649
NsS'symbian-icon-svg'
p650
NsS'android-aliasname'
p651
NsS'psp-dlgmanual'
p652
NsS'brew-uid'
p653
NsS'symbian-locationsupport'
p654
NsS'ws8-ext-managed-dll'
p655
(lp656
sS'ws81-ext-sdk-ref-file'
p657
(lp658
sS'nds-bannertitle-it'
p659
NsS'ws8-ext-sdk-manifest-part'
p660
(lp661
sS'uiq3-icon1-mask'
p662
NsS'winmobile-icon16'
p663
NsS'ws8-product-name'
p664
NsS'blackberry-cskpass'
p665
NsS'winmobile-start-menu-folder'
p666
NsS'brew-clsid'
p667
NsS'roku-requires-bluetooth'
p668
NsS'ws8-ext-device-capabilities'
p669
(lp670
sS'blackberry-permissions-use-camera'
p671
NsS'iphone-prerendered-icon'
p672
NsS'iphone-appid'
p673
NsS'ws8-identity-name'
p674
NsS'tizen-dist2-CA-path'
p675
NsS'winmobile-icon64'
p676
NsS'blackberry-permissions-post-notification'
p677
NsS'winmobile-setup-dll'
p678
NsS'android-external-jars'
p679
(lp680
sS'symbian9-uid'
p681
NsS'iphone-icon-ipad-ios7'
p682
NsS'winmobile-trace-file'
p683
NsS'roku-splash-color'
p684
NsS'psp-appversion'
p685
NsS'ws8-publisher-id'
p686
NsS'android-supports-gl-texture'
p687
(lp688
sS'winmobile-png45'
p689
NsS'android-storepass'
p690
NsS'roku-icon-focus-hd'
p691
NsS'android-custom-activity'
p692
NsS'psp-discversion'
p693
NsS'psp-copyright'
p694
NsS'embed-icf'
p695
NsS'tizen-manifest'
p696
NsS'osx-icon'
p697
NsS'webos-appinfo'
p698
NsS'psp-dlghealthwarning'
p699
NsS'webos-appid'
p700
NsS'roku-icon-side-hd'
p701
NsS'iphone-icon-ipad-search-high-res-ios7'
p702
NsS'ws81-ext-sdk-manifest-part'
p703
(lp704
sS'loader_name_prefix'
p705
NsS'nds-titlename'
p706
NsS'ws81-logo-image50x50'
p707
NsS'osx-entitlements-plist'
p708
NsS'psp-dlgicon0'
p709
NsS'ws81-ext-device-capabilities'
p710
(lp711
sS'psp-discid'
p712
NsS'tizen-dist2-password'
p713
NsS'ws8-ext-sdk-ref'
p714
(lp715
sS'iphone-extra-string'
p716
(lp717
sS'version-string'
p718
NsS'iphone-icon-high-res-ios7'
p719
NsS'blackberry-permissions-record-audio'
p720
NsS'ws8-certificate-end-date'
p721
NsS'tizen-so'
p722
(lp723
sS'wp8-tile-fliptemplate-small-image'
p724
NsS'pkguid-as-uid'
p725
NsS'iphone-signing-identity'
p726
NsS'roku-persist-quota'
p727
NsS'nds-bannertitle-fr'
p728
NsS'ws8-distribution-pfx'
p729
NsS'ws8-publisher-display-name'
p730
NsS'brew-icon-small'
p731
NsS'psp-dlgpic2'
p732
NsS'psp-dlgpic0'
p733
NsS'psp-pic0'
p734
NsS'psp-pic1'
p735
NsS'psp-icon0'
p736
NsS'psp-icon1'
p737
NsS'ws81-identity-name'
p738
NsS'winmobile-icon'
p739
NsS'iphone-no-splash'
p740
NsS'iphone-splash'
p741
NsS'iphone-app-fonts'
p742
NsS'wp8-ext-native-dll'
p743
(lp744
sS'ws81-distribution-cer'
p745
NsS'uiq3-icon2'
p746
NsS'uiq3-icon3'
p747
NsS'uiq3-icon1'
p748
NsS'uiq3-icon1-format'
p749
NsS'ws8-logo-image50x50'
p750
NsS'symbian-icon2-mask-black'
p751
NsS'symbian-run-on-install'
p752
NsS'ws81-publisher-display-name'
p753
NsS'ws81-custom-manifest-fill'
p754
NsS'symbian-soundrecordsupport'
p755
NsS'nds-bannertitle-sp'
p756
NsS'psp-producer'
p757
NsS'iphone-apple-wwdr-cert'
p758
NsS'android-icon-nonstandard'
p759
NsS'win32-pref-processtitle'
p760
NsS'nds-bannertitle-hn'
p761
NsS'tizen-dist2-key'
p762
NsS'brew-depends'
p763
NsS'ws81-custom-manifest'
p764
NsS'iphone-icon-ipad-search-ios7'
p765
NsS'brew-icon-medium'
p766
NsS'iphone-bundle-url-name'
p767
NsS'wp8-tile-fliptemplate-large-front-image'
p768
NsS'tizen-dist2-CA-root-path'
p769
NsS'ws81-description'
p770
NsS'uiq3-icon3-format'
p771
NsS'ws81-logo-image30x30'
p772
NsS'iphone-signing-host'
p773
NsS'tizen-icon'
p774
NsS'osx-info-plist'
p775
NsS'symbian-icon1-format'
p776
NsS'ws81-distribution-pfx'
p777
NsS'blackberry-authorid'
p778
NsS'ws81-publisher-id'
p779
NsS'ws81-ext-sdk-ref'
p780
(lp781
sS'wp8-description'
p782
NsS'iphone-link-opts'
p783
(lp784
sS'roku-splash-min-time'
p785
NsS'wp8-tile-fliptemplate-medium-front-image'
p786
NsS'provider'
p787
NsS'playbook-keystore'
p788
NsS'tizen-appid'
p789
NsS'tizen-author-key'
p790
NsS'symbian-osexecsupport'
p791
NsS'android-install-location'
p792
NsS'nds-privatesavedatasize'
p793
NsS'playbook-storepass'
p794
NsS'android-icon-ldpi'
p795
NsS'manufacturer'
p796
NsS'itunes-artwork'
p797
NsS'iphone-extra-sections'
p798
NsS'ws81-product-name'
p799
NsS'ws81-ext-native-dll'
p800
(lp801
sS'iphone-info-plist'
p802
NsS'ws8-distribution-pfx-password'
p803
NsS'ws8-logo-image30x30'
p804
NsS'wp8-ext-managed-dll'
p805
(lp806
sS'iphone-splashscreen-landscape'
p807
NsS'nds-makercode'
p808
NsS'priv-sign-key'
p809
NsS'networking'
p810
NsS'android-icon'
p811
NsS'iphone-icon-settings'
p812
NsS'iphone-distribution-cert'
p813
NsS'android_extra_strings'
p814
NsS'nds-bannertitle-en'
p815
NsS'playbook-cskpass'
p816
NsS'android-so'
p817
(lp818
sS'wp8-higher-mem'
p819
NsS'roku-splash-screen-hd'
p820
NsS'iphone-bundle-url-schemes'
p821
NsS'roku-screensaver-private'
p822
NsS'osx-extra-res'
p823
(lp824
sS'playbook-icon'
p825
NsS'uid'
p826
NsS'playbook-authorid'
p827
NsS'win32-pref-windowtitle'
p828
NsS'tizen-dist1-password'
p829
NsS'roku-screensaver-title'
p830
NsS'osx-minimum-osx-version'
p831
NsS'symbian-cert'
p832
NsS'iphone-icon'
p833
NsS'ws81-ext-capabilities'
p834
(lp835
sS'ws8-distribution-cer'
p836
NsS'playbook-access-shared'
p837
NsS'iphone-icon-ipad-high-res-ios7'
p838
NsS'iphone-link-libs'
p839
(lp840
sS'wp8-exclude-wvga'
p841
NsS'assets'
p842
NsS'wp8-tile-fliptemplate-large-back-image'
p843
NsS'wp8-custom-manifest-fill'
p844
NsS'pub-sign-key'
p845
NsS'android-extra-strings'
p846
NsS'tizen-author-CA-path'
p847
Nssg312
g452
sbssS'platform'
p848
S'S3E'
p849
sg62
S'1.0'
p850
sS'arcade_platform'
p851
g4
sS'extensions'
p852
(dp853
sS'source_groups_tree'
p854
(dp855
S"'Marmalade Studio'"
p856
(dp857
S'iwutil'
p858
(dp859
S'c:/marmalade/7.3/modules/iwutil/h/IwVariableBitField.h'
p860
(lp861
I1
a(dp862
asS'c:/marmalade/7.3/modules/iwutil/h/IwManagedList.h'
p863
(lp864
I1
ag862
asS'c:/marmalade/7.3/modules/iwutil/docs/iwutil.config.txt'
p865
(lp866
I1
ag862
asS'c:/marmalade/7.3/modules/iwutil/h/IwUtilInitTerm.h'
p867
(lp868
I1
ag862
asS'c:/marmalade/7.3/modules/iwutil/h/IwUncopyable.h'
p869
(lp870
I1
ag862
asS'c:/marmalade/7.3/modules/iwutil/h/IwAllocator.h'
p871
(lp872
I1
ag862
asS'c:/marmalade/7.3/modules/iwutil/h/IwUTF8.h'
p873
(lp874
I1
ag862
asS'c:/marmalade/7.3/modules/iwutil/h/IwHashString.h'
p875
(lp876
I1
ag862
asS'c:/marmalade/7.3/modules/iwutil/h/IwMath.h'
p877
(lp878
I1
ag862
asS'c:/marmalade/7.3/modules/iwutil/h/IwTextParser.h'
p879
(lp880
I1
ag862
asS'c:/marmalade/7.3/modules/iwutil/h/IwString.h'
p881
(lp882
I1
ag862
asS'c:/marmalade/7.3/modules/iwutil/h/IwOptimiseSpeed.h'
p883
(lp884
I1
ag862
asS'c:/marmalade/7.3/modules/iwutil/h/IwRuntime.h'
p885
(lp886
I1
ag862
asS'c:/marmalade/7.3/modules/iwutil/h/IwOptimiseThumb.h'
p887
(lp888
I1
ag862
asS'c:/marmalade/7.3/modules/iwutil/h/IwSerialise.h'
p889
(lp890
I1
ag862
asS'c:/marmalade/7.3/modules/iwutil/h/IwAutoFile.h'
p891
(lp892
I1
ag862
asS'c:/marmalade/7.3/modules/iwutil/h/IwOptimiseARM.h'
p893
(lp894
I1
ag862
asS'c:/marmalade/7.3/modules/iwutil/h/IwPath.h'
p895
(lp896
I1
ag862
asS'c:/marmalade/7.3/modules/iwutil/h/IwFile.h'
p897
(lp898
I1
ag862
asS'c:/marmalade/7.3/modules/iwutil/h/IwTextParseable.h'
p899
(lp900
I1
ag862
asS'c:/marmalade/7.3/modules/iwutil/h/IwList.h'
p901
(lp902
I1
ag862
asS'c:/marmalade/7.3/modules/iwutil/h/IwMenu.h'
p903
(lp904
I1
ag862
asS'c:/marmalade/7.3/modules/iwutil/h/IwImage.h'
p905
(lp906
I1
ag862
asS'c:/marmalade/7.3/modules/iwutil/h/IwProfileMenu.h'
p907
(lp908
I1
ag862
asS'c:/marmalade/7.3/modules/iwutil/h/IwDivTable.h'
p909
(lp910
I1
ag862
asS'c:/marmalade/7.3/modules/iwutil/h/IwBuffer.h'
p911
(lp912
I1
ag862
asS'c:/marmalade/7.3/modules/iwutil/h/IwArray.h'
p913
(lp914
I1
ag862
asS'c:/marmalade/7.3/modules/iwutil/iwutil.mkf'
p915
(lp916
I1
a(dp917
asS'c:/marmalade/7.3/modules/iwutil/h/IwMemBucket.h'
p918
(lp919
I1
ag862
asS'c:/marmalade/7.3/modules/iwutil/h/IwDivide.h'
p920
(lp921
I1
ag862
asS'c:/marmalade/7.3/modules/iwutil/h/IwCopyingPtr.h'
p922
(lp923
I1
ag862
asS'c:/marmalade/7.3/modules/iwutil/h/IwUtil.h'
p924
(lp925
I1
ag862
asS'c:/marmalade/7.3/modules/iwutil/h/IwFibre.h'
p926
(lp927
I1
ag862
asS'c:/marmalade/7.3/modules/iwutil/h/IwImageHelper.h'
p928
(lp929
I1
ag862
asS'c:/marmalade/7.3/modules/iwutil/h/IwSingleton.h'
p930
(lp931
I1
ag862
asS'c:/marmalade/7.3/modules/iwutil/h/IwEvent.h'
p932
(lp933
I1
ag862
asS'c:/marmalade/7.3/modules/iwutil/h/IwResource.h'
p934
(lp935
I1
ag862
asS'c:/marmalade/7.3/modules/iwutil/h/IwTypes.h'
p936
(lp937
I1
ag862
asS'c:/marmalade/7.3/modules/iwutil/h/IwMemManagerDL.h'
p938
(lp939
I1
ag862
asS'c:/marmalade/7.3/modules/iwutil/h/IwKeymap.h'
p940
(lp941
I1
ag862
asS'c:/marmalade/7.3/modules/iwutil/h/IwCore.h'
p942
(lp943
I1
ag862
asS'c:/marmalade/7.3/modules/iwutil/h/IwChar.h'
p944
(lp945
I1
ag862
asS'c:/marmalade/7.3/modules/iwutil/h/IwManaged.h'
p946
(lp947
I1
ag862
asS'c:/marmalade/7.3/modules/iwutil/h/IwMemory.h'
p948
(lp949
I1
ag862
asS'c:/marmalade/7.3/modules/iwutil/h/IwMemBucketHelpers.h'
p950
(lp951
I1
ag862
asS'c:/marmalade/7.3/modules/iwutil/h/IwTextParserITX.h'
p952
(lp953
I1
ag862
asS'c:/marmalade/7.3/modules/iwutil/h/IwOptimiseSize.h'
p954
(lp955
I1
ag862
asS'c:/marmalade/7.3/modules/iwutil/h/IwRandom.h'
p956
(lp957
I1
ag862
asS'c:/marmalade/7.3/modules/iwutil/h/IwDebug.h'
p958
(lp959
I1
ag862
asS'c:/marmalade/7.3/modules/iwutil/h/IwClassFactory.h'
p960
(lp961
I1
ag862
asssS'(zlib)'
p962
(dp963
S'c:/marmalade/7.3/modules/third_party/zlib/zlib.mkf'
p964
(lp965
I1
a(dp966
asS'h'
p967
(dp968
S'c:/marmalade/7.3/modules/third_party/zlib/h/zlib.h'
p969
(lp970
I1
a(dp971
asS'c:/marmalade/7.3/modules/third_party/zlib/h/zconf.h'
p972
(lp973
I1
ag971
asssS'(libpng)'
p974
(dp975
g967
(dp976
S'c:/marmalade/7.3/modules/third_party/libpng/h/pngconf.h'
p977
(lp978
I1
a(dp979
asS'c:/marmalade/7.3/modules/third_party/libpng/h/png.h'
p980
(lp981
I1
ag979
assS'c:/marmalade/7.3/modules/third_party/libpng/libpng.mkf'
p982
(lp983
I1
a(dp984
assS'(libjpeg)'
p985
(dp986
g967
(dp987
S'c:/marmalade/7.3/modules/third_party/libjpeg/h/jpeglib.h'
p988
(lp989
I1
a(dp990
asS'c:/marmalade/7.3/modules/third_party/libjpeg/h/jmemsys.h'
p991
(lp992
I1
ag990
asS'c:/marmalade/7.3/modules/third_party/libjpeg/h/jerror.h'
p993
(lp994
I1
ag990
asS'c:/marmalade/7.3/modules/third_party/libjpeg/h/cdjpeg.h'
p995
(lp996
I1
ag990
asS'c:/marmalade/7.3/modules/third_party/libjpeg/h/transupp.h'
p997
(lp998
I1
ag990
asS'c:/marmalade/7.3/modules/third_party/libjpeg/h/jconfig.h'
p999
(lp1000
I1
ag990
asS'c:/marmalade/7.3/modules/third_party/libjpeg/h/jdhuff.h'
p1001
(lp1002
I1
ag990
asS'c:/marmalade/7.3/modules/third_party/libjpeg/h/jdct.h'
p1003
(lp1004
I1
ag990
asS'c:/marmalade/7.3/modules/third_party/libjpeg/h/cderror.h'
p1005
(lp1006
I1
ag990
asS'c:/marmalade/7.3/modules/third_party/libjpeg/h/jmorecfg.h'
p1007
(lp1008
I1
ag990
asS'c:/marmalade/7.3/modules/third_party/libjpeg/h/jchuff.h'
p1009
(lp1010
I1
ag990
asS'c:/marmalade/7.3/modules/third_party/libjpeg/h/jinclude.h'
p1011
(lp1012
I1
ag990
asS'c:/marmalade/7.3/modules/third_party/libjpeg/h/jpegint.h'
p1013
(lp1014
I1
ag990
asS'c:/marmalade/7.3/modules/third_party/libjpeg/h/jversion.h'
p1015
(lp1016
I1
ag990
assS'c:/marmalade/7.3/modules/third_party/libjpeg/libjpeg.mkf'
p1017
(lp1018
I1
a(dp1019
assS'c:/Users/Randy/Documents/MarmaladeGames/OneTap/OneTap.cpp'
p1020
(lp1021
I1
a(dp1022
assS'files'
p1023
(dp1024
S'hash_map'
p1025
g286
(cmkb_main
File
p1026
g288
Ntp1027
Rp1028
(dp1029
S'flags'
p1030
(dp1031
sS'group'
p1032
(lp1033
S"'Marmalade System (S3E)'"
p1034
aS'stdc headers'
p1035
aS'c++'
p1036
asg312
S'c:/marmalade/7.3/s3e/h/std/c++/hash_map'
p1037
sbsS'IwArray.h'
p1038
g286
(g1026
g288
Ntp1039
Rp1040
(dp1041
g1030
g862
sg1032
(lp1042
g856
ag858
asg312
g913
sbsS'iterator'
p1043
g286
(g1026
g288
Ntp1044
Rp1045
(dp1046
g1030
g1031
sg1032
g1033
sg312
S'c:/marmalade/7.3/s3e/h/std/c++/iterator'
p1047
sbsS'IwUTF8.h'
p1048
g286
(g1026
g288
Ntp1049
Rp1050
(dp1051
g1030
g862
sg1032
g1042
sg312
g873
sbsS'math_rvct.h'
p1052
g286
(g1026
g288
Ntp1053
Rp1054
(dp1055
g1030
g1031
sg1032
(lp1056
g1034
aS'stdc headers'
p1057
asg312
S'c:/marmalade/7.3/s3e/h/std/math_rvct.h'
p1058
sbsS'pthread_alloc'
p1059
g286
(g1026
g288
Ntp1060
Rp1061
(dp1062
g1030
g1031
sg1032
g1033
sg312
S'c:/marmalade/7.3/s3e/h/std/c++/pthread_alloc'
p1063
sbsS'ctype.h'
p1064
g286
(g1026
g288
Ntp1065
Rp1066
(dp1067
g1030
g1031
sg1032
g1056
sg312
S'c:/marmalade/7.3/s3e/h/std/ctype.h'
p1068
sbsS'ctime'
p1069
g286
(g1026
g288
Ntp1070
Rp1071
(dp1072
g1030
g1031
sg1032
g1033
sg312
S'c:/marmalade/7.3/s3e/h/std/c++/ctime'
p1073
sbsS's3e.h'
p1074
g286
(g1026
g288
Ntp1075
Rp1076
(dp1077
g1030
g1031
sg1032
(lp1078
g1034
asg312
S'c:/marmalade/7.3/s3e/h/s3e.h'
p1079
sbsS'errno.h'
p1080
g286
(g1026
g288
Ntp1081
Rp1082
(dp1083
g1030
g1031
sg1032
g1056
sg312
S'c:/marmalade/7.3/s3e/h/std/errno.h'
p1084
sbsS'IwUtil.h'
p1085
g286
(g1026
g288
Ntp1086
Rp1087
(dp1088
g1030
g862
sg1032
g1042
sg312
g924
sbsS'IwSingleton.h'
p1089
g286
(g1026
g288
Ntp1090
Rp1091
(dp1092
g1030
g862
sg1032
g1042
sg312
g930
sbsS'dirent.h'
p1093
g286
(g1026
g288
Ntp1094
Rp1095
(dp1096
g1030
g1031
sg1032
g1056
sg312
S'c:/marmalade/7.3/s3e/h/std/dirent.h'
p1097
sbsS'IwCore.h'
p1098
g286
(g1026
g288
Ntp1099
Rp1100
(dp1101
g1030
g862
sg1032
g1042
sg312
g942
sbsS'dlfcn.h'
p1102
g286
(g1026
g288
Ntp1103
Rp1104
(dp1105
g1030
g1031
sg1032
g1056
sg312
S'c:/marmalade/7.3/s3e/h/std/dlfcn.h'
p1106
sbsS'fstream.h'
p1107
g286
(g1026
g288
Ntp1108
Rp1109
(dp1110
g1030
g1031
sg1032
g1033
sg312
S'c:/marmalade/7.3/s3e/h/std/c++/fstream.h'
p1111
sbsS'cfloat'
p1112
g286
(g1026
g288
Ntp1113
Rp1114
(dp1115
g1030
g1031
sg1032
g1033
sg312
S'c:/marmalade/7.3/s3e/h/std/c++/cfloat'
p1116
sbsS'IwAllocator.h'
p1117
g286
(g1026
g288
Ntp1118
Rp1119
(dp1120
g1030
g862
sg1032
g1042
sg312
g871
sbsS'stdio_streambuf'
p1121
g286
(g1026
g288
Ntp1122
Rp1123
(dp1124
g1030
g1031
sg1032
g1033
sg312
S'c:/marmalade/7.3/s3e/h/std/c++/stdio_streambuf'
p1125
sbsS's3eGL.h'
p1126
g286
(g1026
g288
Ntp1127
Rp1128
(dp1129
g1030
g1031
sg1032
g1078
sg312
S'c:/marmalade/7.3/s3e/h/s3eGL.h'
p1130
sbsS'wctype.h'
p1131
g286
(g1026
g288
Ntp1132
Rp1133
(dp1134
g1030
g1031
sg1032
g1056
sg312
S'c:/marmalade/7.3/s3e/h/std/wctype.h'
p1135
sbsS'IwPath.h'
p1136
g286
(g1026
g288
Ntp1137
Rp1138
(dp1139
g1030
g862
sg1032
g1042
sg312
g895
sbsS'sched.h'
p1140
g286
(g1026
g288
Ntp1141
Rp1142
(dp1143
g1030
g1031
sg1032
g1056
sg312
S'c:/marmalade/7.3/s3e/h/std/sched.h'
p1144
sbsS'valarray'
p1145
g286
(g1026
g288
Ntp1146
Rp1147
(dp1148
g1030
g1031
sg1032
g1033
sg312
S'c:/marmalade/7.3/s3e/h/std/c++/valarray'
p1149
sbsS'cassert'
p1150
g286
(g1026
g288
Ntp1151
Rp1152
(dp1153
g1030
g1031
sg1032
g1033
sg312
S'c:/marmalade/7.3/s3e/h/std/c++/cassert'
p1154
sbsS'grp.h'
p1155
g286
(g1026
g288
Ntp1156
Rp1157
(dp1158
g1030
g1031
sg1032
g1056
sg312
S'c:/marmalade/7.3/s3e/h/std/grp.h'
p1159
sbsS'list'
p1160
g286
(g1026
g288
Ntp1161
Rp1162
(dp1163
g1030
g1031
sg1032
g1033
sg312
S'c:/marmalade/7.3/s3e/h/std/c++/list'
p1164
sbsS'istream'
p1165
g286
(g1026
g288
Ntp1166
Rp1167
(dp1168
g1030
g1031
sg1032
g1033
sg312
S'c:/marmalade/7.3/s3e/h/std/c++/istream'
p1169
sbsS'poll.h'
p1170
g286
(g1026
g288
Ntp1171
Rp1172
(dp1173
g1030
g1031
sg1032
g1056
sg312
S'c:/marmalade/7.3/s3e/h/std/poll.h'
p1174
sbsS'jpeglib.h'
p1175
g286
(g1026
g288
Ntp1176
Rp1177
(dp1178
g1030
g990
sg1032
(lp1179
g985
ag967
asg312
g988
sbsS's3eAccelerometer.h'
p1180
g286
(g1026
g288
Ntp1181
Rp1182
(dp1183
g1030
g1031
sg1032
g1078
sg312
S'c:/marmalade/7.3/s3e/h/s3eAccelerometer.h'
p1184
sbsS'iostream.h'
p1185
g286
(g1026
g288
Ntp1186
Rp1187
(dp1188
g1030
g1031
sg1032
g1033
sg312
S'c:/marmalade/7.3/s3e/h/std/c++/iostream.h'
p1189
sbsS's3eOSReadString.h'
p1190
g286
(g1026
g288
Ntp1191
Rp1192
(dp1193
g1030
g1031
sg1032
(lp1194
g1034
aS'Extensions'
p1195
asg312
S'c:/marmalade/7.3/s3e/h/ext/s3eOSReadString.h'
p1196
sbsS'cstddef'
p1197
g286
(g1026
g288
Ntp1198
Rp1199
(dp1200
g1030
g1031
sg1032
g1033
sg312
S'c:/marmalade/7.3/s3e/h/std/c++/cstddef'
p1201
sbsS'iosfwd'
p1202
g286
(g1026
g288
Ntp1203
Rp1204
(dp1205
g1030
g1031
sg1032
g1033
sg312
S'c:/marmalade/7.3/s3e/h/std/c++/iosfwd'
p1206
sbsS'string'
p1207
g286
(g1026
g288
Ntp1208
Rp1209
(dp1210
g1030
g1031
sg1032
g1033
sg312
S'c:/marmalade/7.3/s3e/h/std/c++/string'
p1211
sbsS'IwMemory.h'
p1212
g286
(g1026
g288
Ntp1213
Rp1214
(dp1215
g1030
g862
sg1032
g1042
sg312
g948
sbsS'mman.h'
p1216
g286
(g1026
g288
Ntp1217
Rp1218
(dp1219
g1030
g1031
sg1032
(lp1220
g1034
aS'stdc headers'
p1221
aS'sys'
p1222
asg312
S'c:/marmalade/7.3/s3e/h/std/sys/mman.h'
p1223
sbsS'IwRandom.h'
p1224
g286
(g1026
g288
Ntp1225
Rp1226
(dp1227
g1030
g862
sg1032
g1042
sg312
g956
sbsS'libgen.h'
p1228
g286
(g1026
g288
Ntp1229
Rp1230
(dp1231
g1030
g1031
sg1032
g1056
sg312
S'c:/marmalade/7.3/s3e/h/std/libgen.h'
p1232
sbsS'utsname.h'
p1233
g286
(g1026
g288
Ntp1234
Rp1235
(dp1236
g1030
g1031
sg1032
g1220
sg312
S'c:/marmalade/7.3/s3e/h/std/sys/utsname.h'
p1237
sbsS'fstream'
p1238
g286
(g1026
g288
Ntp1239
Rp1240
(dp1241
g1030
g1031
sg1032
g1033
sg312
S'c:/marmalade/7.3/s3e/h/std/c++/fstream'
p1242
sbsS'wait.h'
p1243
g286
(g1026
g288
Ntp1244
Rp1245
(dp1246
g1030
g1031
sg1032
g1220
sg312
S'c:/marmalade/7.3/s3e/h/std/sys/wait.h'
p1247
sbsS'IwFile.h'
p1248
g286
(g1026
g288
Ntp1249
Rp1250
(dp1251
g1030
g862
sg1032
g1042
sg312
g897
sbsS'IwTextParseable.h'
p1252
g286
(g1026
g288
Ntp1253
Rp1254
(dp1255
g1030
g862
sg1032
g1042
sg312
g899
sbsS'istream.h'
p1256
g286
(g1026
g288
Ntp1257
Rp1258
(dp1259
g1030
g1031
sg1032
g1033
sg312
S'c:/marmalade/7.3/s3e/h/std/c++/istream.h'
p1260
sbsS'type_traits.h'
p1261
g286
(g1026
g288
Ntp1262
Rp1263
(dp1264
g1030
g1031
sg1032
g1033
sg312
S'c:/marmalade/7.3/s3e/h/std/c++/type_traits.h'
p1265
sbsS'algorithm'
p1266
g286
(g1026
g288
Ntp1267
Rp1268
(dp1269
g1030
g1031
sg1032
g1033
sg312
S'c:/marmalade/7.3/s3e/h/std/c++/algorithm'
p1270
sbsS'cwchar'
p1271
g286
(g1026
g288
Ntp1272
Rp1273
(dp1274
g1030
g1031
sg1032
g1033
sg312
S'c:/marmalade/7.3/s3e/h/std/c++/cwchar'
p1275
sbsS'stdint.h'
p1276
g286
(g1026
g288
Ntp1277
Rp1278
(dp1279
g1030
g1031
sg1032
g1056
sg312
S'c:/marmalade/7.3/s3e/h/std/stdint.h'
p1280
sbsS'semaphore.h'
p1281
g286
(g1026
g288
Ntp1282
Rp1283
(dp1284
g1030
g1031
sg1032
g1056
sg312
S'c:/marmalade/7.3/s3e/h/std/semaphore.h'
p1285
sbsS'iomanip'
p1286
g286
(g1026
g288
Ntp1287
Rp1288
(dp1289
g1030
g1031
sg1032
g1033
sg312
S'c:/marmalade/7.3/s3e/h/std/c++/iomanip'
p1290
sbsS'gl2.h'
p1291
g286
(g1026
g288
Ntp1292
Rp1293
(dp1294
g1030
g1031
sg1032
(lp1295
g1034
aS'GL'
p1296
aS'GLES 2.0'
p1297
asg312
S'c:/marmalade/7.3/s3e/h/GLES2/gl2.h'
p1298
sbsS'assert.h'
p1299
g286
(g1026
g288
Ntp1300
Rp1301
(dp1302
g1030
g1031
sg1032
g1056
sg312
S'c:/marmalade/7.3/s3e/h/std/assert.h'
p1303
sbsS'param.h'
p1304
g286
(g1026
g288
Ntp1305
Rp1306
(dp1307
g1030
g1031
sg1032
g1220
sg312
S'c:/marmalade/7.3/s3e/h/std/sys/param.h'
p1308
sbsS'dir.h'
p1309
g286
(g1026
g288
Ntp1310
Rp1311
(dp1312
g1030
g1031
sg1032
g1220
sg312
S'c:/marmalade/7.3/s3e/h/std/sys/dir.h'
p1313
sbsS'IwDivide.h'
p1314
g286
(g1026
g288
Ntp1315
Rp1316
(dp1317
g1030
g862
sg1032
g1042
sg312
g920
sbsS'locale.h'
p1318
g286
(g1026
g288
Ntp1319
Rp1320
(dp1321
g1030
g1031
sg1032
g1056
sg312
S'c:/marmalade/7.3/s3e/h/std/locale.h'
p1322
sbsS'IwManagedList.h'
p1323
g286
(g1026
g288
Ntp1324
Rp1325
(dp1326
g1030
g862
sg1032
g1042
sg312
g863
sbsS'vector'
p1327
g286
(g1026
g288
Ntp1328
Rp1329
(dp1330
g1030
g1031
sg1032
g1033
sg312
S'c:/marmalade/7.3/s3e/h/std/c++/vector'
p1331
sbsS'ostream'
p1332
g286
(g1026
g288
Ntp1333
Rp1334
(dp1335
g1030
g1031
sg1032
g1033
sg312
S'c:/marmalade/7.3/s3e/h/std/c++/ostream'
p1336
sbsS'termios.h'
p1337
g286
(g1026
g288
Ntp1338
Rp1339
(dp1340
g1030
g1031
sg1032
g1056
sg312
S'c:/marmalade/7.3/s3e/h/std/termios.h'
p1341
sbsS'cwctype'
p1342
g286
(g1026
g288
Ntp1343
Rp1344
(dp1345
g1030
g1031
sg1032
g1033
sg312
S'c:/marmalade/7.3/s3e/h/std/c++/cwctype'
p1346
sbsS's3ePointer.h'
p1347
g286
(g1026
g288
Ntp1348
Rp1349
(dp1350
g1030
g1031
sg1032
g1078
sg312
S'c:/marmalade/7.3/s3e/h/s3ePointer.h'
p1351
sbsS'IwManaged.h'
p1352
g286
(g1026
g288
Ntp1353
Rp1354
(dp1355
g1030
g862
sg1032
g1042
sg312
g946
sbsS'stdiostream.h'
p1356
g286
(g1026
g288
Ntp1357
Rp1358
(dp1359
g1030
g1031
sg1032
g1033
sg312
S'c:/marmalade/7.3/s3e/h/std/c++/stdiostream.h'
p1360
sbsS'sstream'
p1361
g286
(g1026
g288
Ntp1362
Rp1363
(dp1364
g1030
g1031
sg1032
g1033
sg312
S'c:/marmalade/7.3/s3e/h/std/c++/sstream'
p1365
sbsS'alloca.h'
p1366
g286
(g1026
g288
Ntp1367
Rp1368
(dp1369
g1030
g1031
sg1032
g1056
sg312
S'c:/marmalade/7.3/s3e/h/std/alloca.h'
p1370
sbsS'jerror.h'
p1371
g286
(g1026
g288
Ntp1372
Rp1373
(dp1374
g1030
g990
sg1032
g1179
sg312
g993
sbsS's3eCompass.h'
p1375
g286
(g1026
g288
Ntp1376
Rp1377
(dp1378
g1030
g1031
sg1032
g1078
sg312
S'c:/marmalade/7.3/s3e/h/s3eCompass.h'
p1379
sbsS'prctl.h'
p1380
g286
(g1026
g288
Ntp1381
Rp1382
(dp1383
g1030
g1031
sg1032
g1220
sg312
S'c:/marmalade/7.3/s3e/h/std/sys/prctl.h'
p1384
sbsS'netdb.h'
p1385
g286
(g1026
g288
Ntp1386
Rp1387
(dp1388
g1030
g1031
sg1032
g1056
sg312
S'c:/marmalade/7.3/s3e/h/std/netdb.h'
p1389
sbsS's3eOSExec.h'
p1390
g286
(g1026
g288
Ntp1391
Rp1392
(dp1393
g1030
g1031
sg1032
g1194
sg312
S'c:/marmalade/7.3/s3e/h/ext/s3eOSExec.h'
p1394
sbsS'locale'
p1395
g286
(g1026
g288
Ntp1396
Rp1397
(dp1398
g1030
g1031
sg1032
g1033
sg312
S'c:/marmalade/7.3/s3e/h/std/c++/locale'
p1399
sbsS'zconf.h'
p1400
g286
(g1026
g288
Ntp1401
Rp1402
(dp1403
g1030
g971
sg1032
(lp1404
g962
ag967
asg312
g972
sbsS'cderror.h'
p1405
g286
(g1026
g288
Ntp1406
Rp1407
(dp1408
g1030
g990
sg1032
g1179
sg312
g1005
sbsS'climits'
p1409
g286
(g1026
g288
Ntp1410
Rp1411
(dp1412
g1030
g1031
sg1032
g1033
sg312
S'c:/marmalade/7.3/s3e/h/std/c++/climits'
p1413
sbsS's3e.config.txt'
p1414
g286
(g1026
g288
Ntp1415
Rp1416
(dp1417
g1030
g1031
sg1032
g1078
sg312
S'c:/marmalade/7.3/s3e/s3e.config.txt'
p1418
sbsS'numeric'
p1419
g286
(g1026
g288
Ntp1420
Rp1421
(dp1422
g1030
g1031
sg1032
g1033
sg312
S'c:/marmalade/7.3/s3e/h/std/c++/numeric'
p1423
sbsS'utime.h'
p1424
g286
(g1026
g288
Ntp1425
Rp1426
(dp1427
g1030
g1031
sg1032
g1056
sg312
S'c:/marmalade/7.3/s3e/h/std/utime.h'
p1428
sbsS'cdjpeg.h'
p1429
g286
(g1026
g288
Ntp1430
Rp1431
(dp1432
g1030
g990
sg1032
g1179
sg312
g995
sbsS'cstdio'
p1433
g286
(g1026
g288
Ntp1434
Rp1435
(dp1436
g1030
g1031
sg1032
g1033
sg312
S'c:/marmalade/7.3/s3e/h/std/c++/cstdio'
p1437
sbsS's3eVibra.h'
p1438
g286
(g1026
g288
Ntp1439
Rp1440
(dp1441
g1030
g1031
sg1032
g1078
sg312
S'c:/marmalade/7.3/s3e/h/s3eVibra.h'
p1442
sbsS'jversion.h'
p1443
g286
(g1026
g288
Ntp1444
Rp1445
(dp1446
g1030
g990
sg1032
g1179
sg312
g1015
sbsS'fnmatch.h'
p1447
g286
(g1026
g288
Ntp1448
Rp1449
(dp1450
g1030
g1031
sg1032
g1056
sg312
S'c:/marmalade/7.3/s3e/h/std/fnmatch.h'
p1451
sbsS'jdhuff.h'
p1452
g286
(g1026
g288
Ntp1453
Rp1454
(dp1455
g1030
g990
sg1032
g1179
sg312
g1001
sbsS'stack'
p1456
g286
(g1026
g288
Ntp1457
Rp1458
(dp1459
g1030
g1031
sg1032
g1033
sg312
S'c:/marmalade/7.3/s3e/h/std/c++/stack'
p1460
sbsS'sendfile.h'
p1461
g286
(g1026
g288
Ntp1462
Rp1463
(dp1464
g1030
g1031
sg1032
g1220
sg312
S'c:/marmalade/7.3/s3e/h/std/sys/sendfile.h'
p1465
sbsS'strings.h'
p1466
g286
(g1026
g288
Ntp1467
Rp1468
(dp1469
g1030
g1031
sg1032
g1056
sg312
S'c:/marmalade/7.3/s3e/h/std/strings.h'
p1470
sbsS'inttypes.h'
p1471
g286
(g1026
g288
Ntp1472
Rp1473
(dp1474
g1030
g1031
sg1032
g1056
sg312
S'c:/marmalade/7.3/s3e/h/std/inttypes.h'
p1475
sbsS's3eAudio.h'
p1476
g286
(g1026
g288
Ntp1477
Rp1478
(dp1479
g1030
g1031
sg1032
g1078
sg312
S'c:/marmalade/7.3/s3e/h/s3eAudio.h'
p1480
sbsS'new'
p1481
g286
(g1026
g288
Ntp1482
Rp1483
(dp1484
g1030
g1031
sg1032
g1033
sg312
S'c:/marmalade/7.3/s3e/h/std/c++/new'
p1485
sbsS'IwImage.h'
p1486
g286
(g1026
g288
Ntp1487
Rp1488
(dp1489
g1030
g862
sg1032
g1042
sg312
g905
sbsS's3eImagePicker.h'
p1490
g286
(g1026
g288
Ntp1491
Rp1492
(dp1493
g1030
g1031
sg1032
g1194
sg312
S'c:/marmalade/7.3/s3e/h/ext/s3eImagePicker.h'
p1494
sbsS's3eExt.h'
p1495
g286
(g1026
g288
Ntp1496
Rp1497
(dp1498
g1030
g1031
sg1032
g1078
sg312
S'c:/marmalade/7.3/s3e/h/s3eExt.h'
p1499
sbsS'transupp.h'
p1500
g286
(g1026
g288
Ntp1501
Rp1502
(dp1503
g1030
g990
sg1032
g1179
sg312
g997
sbsS'IwMath.h'
p1504
g286
(g1026
g288
Ntp1505
Rp1506
(dp1507
g1030
g862
sg1032
g1042
sg312
g877
sbsS's3eSurface.h'
p1508
g286
(g1026
g288
Ntp1509
Rp1510
(dp1511
g1030
g1031
sg1032
g1078
sg312
S'c:/marmalade/7.3/s3e/h/s3eSurface.h'
p1512
sbsS'time.h'
p1513
g286
(g1026
g288
Ntp1514
Rp1515
(dp1516
g1030
g1031
sg1032
g1056
sg312
S'c:/marmalade/7.3/s3e/h/std/time.h'
p1517
sbsS'stdlib.h'
p1518
g286
(g1026
g288
Ntp1519
Rp1520
(dp1521
g1030
g1031
sg1032
g1056
sg312
S'c:/marmalade/7.3/s3e/h/std/stdlib.h'
p1522
sbsS'gl3ext.h'
p1523
g286
(g1026
g288
Ntp1524
Rp1525
(dp1526
g1030
g1031
sg1032
(lp1527
g1034
aS'GL'
p1528
aS'GLES 3.0'
p1529
asg312
S'c:/marmalade/7.3/s3e/h/GLES3/gl3ext.h'
p1530
sbsS'stddef.h'
p1531
g286
(g1026
g288
Ntp1532
Rp1533
(dp1534
g1030
g1031
sg1032
g1056
sg312
S'c:/marmalade/7.3/s3e/h/std/stddef.h'
p1535
sbsS's3eWindow.h'
p1536
g286
(g1026
g288
Ntp1537
Rp1538
(dp1539
g1030
g1031
sg1032
g1194
sg312
S'c:/marmalade/7.3/s3e/h/ext/s3eWindow.h'
p1540
sbsS's3eMetrics.h'
p1541
g286
(g1026
g288
Ntp1542
Rp1543
(dp1544
g1030
g1031
sg1032
g1194
sg312
S'c:/marmalade/7.3/s3e/h/ext/s3eMetrics.h'
p1545
sbsS'IwCopyingPtr.h'
p1546
g286
(g1026
g288
Ntp1547
Rp1548
(dp1549
g1030
g862
sg1032
g1042
sg312
g922
sbsS'IwBuffer.h'
p1550
g286
(g1026
g288
Ntp1551
Rp1552
(dp1553
g1030
g862
sg1032
g1042
sg312
g911
sbsS'app.config.txt'
p1554
g286
(g1026
g288
Ntp1555
Rp1556
(dp1557
g1030
(dp1558
sg1032
g4
sg312
S'c:/Users/Randy/Documents/MarmaladeGames/OneTap/data/app.config.txt'
p1559
sbsS'iostream'
p1560
g286
(g1026
g288
Ntp1561
Rp1562
(dp1563
g1030
g1031
sg1032
g1033
sg312
S'c:/marmalade/7.3/s3e/h/std/c++/iostream'
p1564
sbsS'png.h'
p1565
g286
(g1026
g288
Ntp1566
Rp1567
(dp1568
g1030
g979
sg1032
(lp1569
g974
ag967
asg312
g980
sbsS'glplatform.h'
p1570
g286
(g1026
g288
Ntp1571
Rp1572
(dp1573
g1030
g1031
sg1032
(lp1574
g1034
aS'GL'
p1575
aS'GLES 1.x'
p1576
asg312
S'c:/marmalade/7.3/s3e/h/GLES/glplatform.h'
p1577
sbsS'app.icf'
p1578
g286
(g1026
g288
Ntp1579
Rp1580
(dp1581
g1030
(dp1582
sg1032
g4
sg312
S'c:/Users/Randy/Documents/MarmaladeGames/OneTap/data/app.icf'
p1583
sbsS'ucontext.h'
p1584
g286
(g1026
g288
Ntp1585
Rp1586
(dp1587
g1030
g1031
sg1032
g1056
sg312
S'c:/marmalade/7.3/s3e/h/std/ucontext.h'
p1588
sbsS'setjmp_win32.h'
p1589
g286
(g1026
g288
Ntp1590
Rp1591
(dp1592
g1030
g1031
sg1032
g1056
sg312
S'c:/marmalade/7.3/s3e/h/std/setjmp_win32.h'
p1593
sbsS'unistd.h'
p1594
g286
(g1026
g288
Ntp1595
Rp1596
(dp1597
g1030
g1031
sg1032
g1056
sg312
S'c:/marmalade/7.3/s3e/h/std/unistd.h'
p1598
sbsS's3eSecureStorage.h'
p1599
g286
(g1026
g288
Ntp1600
Rp1601
(dp1602
g1030
g1031
sg1032
g1078
sg312
S'c:/marmalade/7.3/s3e/h/s3eSecureStorage.h'
p1603
sbsS'string.h'
p1604
g286
(g1026
g288
Ntp1605
Rp1606
(dp1607
g1030
g1031
sg1032
g1056
sg312
S'c:/marmalade/7.3/s3e/h/std/string.h'
p1608
sbsS'IwResource.h'
p1609
g286
(g1026
g288
Ntp1610
Rp1611
(dp1612
g1030
g862
sg1032
g1042
sg312
g934
sbsS'libjpeg.mkf'
p1613
g286
(g1026
g288
Ntp1614
Rp1615
(dp1616
g1030
g1019
sg1032
(lp1617
g985
asg312
g1017
sbsS'IwChar.h'
p1618
g286
(g1026
g288
Ntp1619
Rp1620
(dp1621
g1030
g862
sg1032
g1042
sg312
g944
sbsS'streambuf.h'
p1622
g286
(g1026
g288
Ntp1623
Rp1624
(dp1625
g1030
g1031
sg1032
g1033
sg312
S'c:/marmalade/7.3/s3e/h/std/c++/streambuf.h'
p1626
sbsS'IwRuntime.h'
p1627
g286
(g1026
g288
Ntp1628
Rp1629
(dp1630
g1030
g862
sg1032
g1042
sg312
g885
sbsS'float.h'
p1631
g286
(g1026
g288
Ntp1632
Rp1633
(dp1634
g1030
g1031
sg1032
g1056
sg312
S'c:/marmalade/7.3/s3e/h/std/float.h'
p1635
sbsS'iomanip.h'
p1636
g286
(g1026
g288
Ntp1637
Rp1638
(dp1639
g1030
g1031
sg1032
g1033
sg312
S'c:/marmalade/7.3/s3e/h/std/c++/iomanip.h'
p1640
sbsS'limits'
p1641
g286
(g1026
g288
Ntp1642
Rp1643
(dp1644
g1030
g1031
sg1032
g1033
sg312
S'c:/marmalade/7.3/s3e/h/std/c++/limits'
p1645
sbsS'gl2platform.h'
p1646
g286
(g1026
g288
Ntp1647
Rp1648
(dp1649
g1030
g1031
sg1032
g1295
sg312
S'c:/marmalade/7.3/s3e/h/GLES2/gl2platform.h'
p1650
sbsS'queue'
p1651
g286
(g1026
g288
Ntp1652
Rp1653
(dp1654
g1030
g1031
sg1032
g1033
sg312
S'c:/marmalade/7.3/s3e/h/std/c++/queue'
p1655
sbsS'wchar.h'
p1656
g286
(g1026
g288
Ntp1657
Rp1658
(dp1659
g1030
g1031
sg1032
g1056
sg312
S'c:/marmalade/7.3/s3e/h/std/wchar.h'
p1660
sbsS's3eContacts.h'
p1661
g286
(g1026
g288
Ntp1662
Rp1663
(dp1664
g1030
g1031
sg1032
g1078
sg312
S'c:/marmalade/7.3/s3e/h/s3eContacts.h'
p1665
sbsS'IwKeymap.h'
p1666
g286
(g1026
g288
Ntp1667
Rp1668
(dp1669
g1030
g862
sg1032
g1042
sg312
g940
sbsS'IwDebug.h'
p1670
g286
(g1026
g288
Ntp1671
Rp1672
(dp1673
g1030
g862
sg1032
g1042
sg312
g958
sbsS'IwVariableBitField.h'
p1674
g286
(g1026
g288
Ntp1675
Rp1676
(dp1677
g1030
g862
sg1032
g1042
sg312
g860
sbsS's3eCameraCapture.h'
p1678
g286
(g1026
g288
Ntp1679
Rp1680
(dp1681
g1030
g1031
sg1032
g1194
sg312
S'c:/marmalade/7.3/s3e/h/ext/s3eCameraCapture.h'
p1682
sbsS'eglext.h'
p1683
g286
(g1026
g288
Ntp1684
Rp1685
(dp1686
g1030
g1031
sg1032
(lp1687
g1034
aS'GL'
p1688
aS'EGL'
p1689
asg312
S'c:/marmalade/7.3/s3e/h/EGL/eglext.h'
p1690
sbsS'time_1.h'
p1691
g286
(g1026
g288
Ntp1692
Rp1693
(dp1694
g1030
g1031
sg1032
g1220
sg312
S'c:/marmalade/7.3/s3e/h/std/sys/time.h'
p1695
sbsS'IwTextParser.h'
p1696
g286
(g1026
g288
Ntp1697
Rp1698
(dp1699
g1030
g862
sg1032
g1042
sg312
g879
sbsS'IwDivTable.h'
p1700
g286
(g1026
g288
Ntp1701
Rp1702
(dp1703
g1030
g862
sg1032
g1042
sg312
g909
sbsS's3eTimer.h'
p1704
g286
(g1026
g288
Ntp1705
Rp1706
(dp1707
g1030
g1031
sg1032
g1078
sg312
S'c:/marmalade/7.3/s3e/h/s3eTimer.h'
p1708
sbsS'socket.h'
p1709
g286
(g1026
g288
Ntp1710
Rp1711
(dp1712
g1030
g1031
sg1032
g1220
sg312
S'c:/marmalade/7.3/s3e/h/std/sys/socket.h'
p1713
sbsS'IwSerialise.h'
p1714
g286
(g1026
g288
Ntp1715
Rp1716
(dp1717
g1030
g862
sg1032
g1042
sg312
g889
sbsS'malloc.h'
p1718
g286
(g1026
g288
Ntp1719
Rp1720
(dp1721
g1030
g1031
sg1032
g1056
sg312
S'c:/marmalade/7.3/s3e/h/std/malloc.h'
p1722
sbsS'signal_1.h'
p1723
g286
(g1026
g288
Ntp1724
Rp1725
(dp1726
g1030
g1031
sg1032
g1220
sg312
S'c:/marmalade/7.3/s3e/h/std/sys/signal.h'
p1727
sbsS'cstdarg'
p1728
g286
(g1026
g288
Ntp1729
Rp1730
(dp1731
g1030
g1031
sg1032
g1033
sg312
S'c:/marmalade/7.3/s3e/h/std/c++/cstdarg'
p1732
sbsS'typeinfo'
p1733
g286
(g1026
g288
Ntp1734
Rp1735
(dp1736
g1030
g1031
sg1032
g1033
sg312
S'c:/marmalade/7.3/s3e/h/std/c++/typeinfo'
p1737
sbsS'stdarg.h'
p1738
g286
(g1026
g288
Ntp1739
Rp1740
(dp1741
g1030
g1031
sg1032
g1056
sg312
S'c:/marmalade/7.3/s3e/h/std/stdarg.h'
p1742
sbsS'strstream.h'
p1743
g286
(g1026
g288
Ntp1744
Rp1745
(dp1746
g1030
g1031
sg1032
g1033
sg312
S'c:/marmalade/7.3/s3e/h/std/c++/strstream.h'
p1747
sbsS'shm.h'
p1748
g286
(g1026
g288
Ntp1749
Rp1750
(dp1751
g1030
g1031
sg1032
g1220
sg312
S'c:/marmalade/7.3/s3e/h/std/sys/shm.h'
p1752
sbsS'jpegint.h'
p1753
g286
(g1026
g288
Ntp1754
Rp1755
(dp1756
g1030
g990
sg1032
g1179
sg312
g1013
sbsS'set'
p1757
g286
(g1026
g288
Ntp1758
Rp1759
(dp1760
g1030
g1031
sg1032
g1033
sg312
S'c:/marmalade/7.3/s3e/h/std/c++/set'
p1761
sbsS'endian.h'
p1762
g286
(g1026
g288
Ntp1763
Rp1764
(dp1765
g1030
g1031
sg1032
g1056
sg312
S'c:/marmalade/7.3/s3e/h/std/endian.h'
p1766
sbsS'gl2ext.h'
p1767
g286
(g1026
g288
Ntp1768
Rp1769
(dp1770
g1030
g1031
sg1032
g1295
sg312
S'c:/marmalade/7.3/s3e/h/GLES2/gl2ext.h'
p1771
sbsS'setjmp.h'
p1772
g286
(g1026
g288
Ntp1773
Rp1774
(dp1775
g1030
g1031
sg1032
g1056
sg312
S'c:/marmalade/7.3/s3e/h/std/setjmp.h'
p1776
sbsS'mem.h'
p1777
g286
(g1026
g288
Ntp1778
Rp1779
(dp1780
g1030
g1031
sg1032
g1033
sg312
S'c:/marmalade/7.3/s3e/h/std/c++/mem.h'
p1781
sbsS'un.h'
p1782
g286
(g1026
g288
Ntp1783
Rp1784
(dp1785
g1030
g1031
sg1032
g1220
sg312
S'c:/marmalade/7.3/s3e/h/std/sys/un.h'
p1786
sbsS's3eCompression.h'
p1787
g286
(g1026
g288
Ntp1788
Rp1789
(dp1790
g1030
g1031
sg1032
g1078
sg312
S'c:/marmalade/7.3/s3e/h/s3eCompression.h'
p1791
sbsS's3eSound.h'
p1792
g286
(g1026
g288
Ntp1793
Rp1794
(dp1795
g1030
g1031
sg1032
g1078
sg312
S'c:/marmalade/7.3/s3e/h/s3eSound.h'
p1796
sbsS'glob.h'
p1797
g286
(g1026
g288
Ntp1798
Rp1799
(dp1800
g1030
g1031
sg1032
g1056
sg312
S'c:/marmalade/7.3/s3e/h/std/glob.h'
p1801
sbsS'IwClassFactory.h'
p1802
g286
(g1026
g288
Ntp1803
Rp1804
(dp1805
g1030
g862
sg1032
g1042
sg312
g960
sbsS'file.h'
p1806
g286
(g1026
g288
Ntp1807
Rp1808
(dp1809
g1030
g1031
sg1032
g1220
sg312
S'c:/marmalade/7.3/s3e/h/std/sys/file.h'
p1810
sbsS's3eIOSBackgroundAudio.h'
p1811
g286
(g1026
g288
Ntp1812
Rp1813
(dp1814
g1030
g1031
sg1032
g1194
sg312
S'c:/marmalade/7.3/s3e/h/ext/s3eIOSBackgroundAudio.h'
p1815
sbsS'IwOptimiseThumb.h'
p1816
g286
(g1026
g288
Ntp1817
Rp1818
(dp1819
g1030
g862
sg1032
g1042
sg312
g887
sbsS'cstring'
p1820
g286
(g1026
g288
Ntp1821
Rp1822
(dp1823
g1030
g1031
sg1032
g1033
sg312
S'c:/marmalade/7.3/s3e/h/std/c++/cstring'
p1824
sbsS'OneTap.cpp'
p1825
g286
(g1026
g288
Ntp1826
Rp1827
(dp1828
g1030
g1022
sg1032
(lp1829
sg312
g1020
sbsS'exception.h'
p1830
g286
(g1026
g288
Ntp1831
Rp1832
(dp1833
g1030
g1031
sg1032
g1033
sg312
S'c:/marmalade/7.3/s3e/h/std/c++/exception.h'
p1834
sbsS's3eCamera.h'
p1835
g286
(g1026
g288
Ntp1836
Rp1837
(dp1838
g1030
g1031
sg1032
g1078
sg312
S'c:/marmalade/7.3/s3e/h/s3eCamera.h'
p1839
sbsS'jconfig.h'
p1840
g286
(g1026
g288
Ntp1841
Rp1842
(dp1843
g1030
g990
sg1032
g1179
sg312
g999
sbsS'clocale'
p1844
g286
(g1026
g288
Ntp1845
Rp1846
(dp1847
g1030
g1031
sg1032
g1033
sg312
S'c:/marmalade/7.3/s3e/h/std/c++/clocale'
p1848
sbsS'memory'
p1849
g286
(g1026
g288
Ntp1850
Rp1851
(dp1852
g1030
g1031
sg1032
g1033
sg312
S'c:/marmalade/7.3/s3e/h/std/c++/memory'
p1853
sbsS'egl.h'
p1854
g286
(g1026
g288
Ntp1855
Rp1856
(dp1857
g1030
g1031
sg1032
g1687
sg312
S'c:/marmalade/7.3/s3e/h/EGL/egl.h'
p1858
sbsS'egl_1.h'
p1859
g286
(g1026
g288
Ntp1860
Rp1861
(dp1862
g1030
g1031
sg1032
g1574
sg312
S'c:/marmalade/7.3/s3e/h/GLES/egl.h'
p1863
sbsS'IwMemManagerDL.h'
p1864
g286
(g1026
g288
Ntp1865
Rp1866
(dp1867
g1030
g862
sg1032
g1042
sg312
g938
sbsS'iwutil.config.txt'
p1868
g286
(g1026
g288
Ntp1869
Rp1870
(dp1871
g1030
g862
sg1032
g1042
sg312
g865
sbsS'deque'
p1872
g286
(g1026
g288
Ntp1873
Rp1874
(dp1875
g1030
g1031
sg1032
g1033
sg312
S'c:/marmalade/7.3/s3e/h/std/c++/deque'
p1876
sbsS'IwString.h'
p1877
g286
(g1026
g288
Ntp1878
Rp1879
(dp1880
g1030
g862
sg1032
g1042
sg312
g881
sbsS's3eCrypto.h'
p1881
g286
(g1026
g288
Ntp1882
Rp1883
(dp1884
g1030
g1031
sg1032
g1078
sg312
S'c:/marmalade/7.3/s3e/h/s3eCrypto.h'
p1885
sbsS'zlib.h'
p1886
g286
(g1026
g288
Ntp1887
Rp1888
(dp1889
g1030
g971
sg1032
g1404
sg312
g969
sbsS's3eSMS.h'
p1890
g286
(g1026
g288
Ntp1891
Rp1892
(dp1893
g1030
g1031
sg1032
g1194
sg312
S'c:/marmalade/7.3/s3e/h/ext/s3eSMS.h'
p1894
sbsS'cctype'
p1895
g286
(g1026
g288
Ntp1896
Rp1897
(dp1898
g1030
g1031
sg1032
g1033
sg312
S'c:/marmalade/7.3/s3e/h/std/c++/cctype'
p1899
sbsS'limits.h'
p1900
g286
(g1026
g288
Ntp1901
Rp1902
(dp1903
g1030
g1031
sg1032
g1056
sg312
S'c:/marmalade/7.3/s3e/h/std/limits.h'
p1904
sbsS'stdexcept'
p1905
g286
(g1026
g288
Ntp1906
Rp1907
(dp1908
g1030
g1031
sg1032
g1033
sg312
S'c:/marmalade/7.3/s3e/h/std/c++/stdexcept'
p1909
sbsS'fcntl.h'
p1910
g286
(g1026
g288
Ntp1911
Rp1912
(dp1913
g1030
g1031
sg1032
g1056
sg312
S'c:/marmalade/7.3/s3e/h/std/fcntl.h'
p1914
sbsS'sigcontext.h'
p1915
g286
(g1026
g288
Ntp1916
Rp1917
(dp1918
g1030
g1031
sg1032
g1056
sg312
S'c:/marmalade/7.3/s3e/h/std/sigcontext.h'
p1919
sbsS'iwutil.mkf'
p1920
g286
(g1026
g288
Ntp1921
Rp1922
(dp1923
g1030
g917
sg1032
g1042
sg312
g915
sbsS'csignal'
p1924
g286
(g1026
g288
Ntp1925
Rp1926
(dp1927
g1030
g1031
sg1032
g1033
sg312
S'c:/marmalade/7.3/s3e/h/std/c++/csignal'
p1928
sbsS'ostream.h'
p1929
g286
(g1026
g288
Ntp1930
Rp1931
(dp1932
g1030
g1031
sg1032
g1033
sg312
S'c:/marmalade/7.3/s3e/h/std/c++/ostream.h'
p1933
sbsS'types.h'
p1934
g286
(g1026
g288
Ntp1935
Rp1936
(dp1937
g1030
g1031
sg1032
g1220
sg312
S'c:/marmalade/7.3/s3e/h/std/sys/types.h'
p1938
sbsS'pthread_types.h'
p1939
g286
(g1026
g288
Ntp1940
Rp1941
(dp1942
g1030
g1031
sg1032
g1056
sg312
S'c:/marmalade/7.3/s3e/h/std/pthread_types.h'
p1943
sbsS'ifaddrs.h'
p1944
g286
(g1026
g288
Ntp1945
Rp1946
(dp1947
g1030
g1031
sg1032
g1056
sg312
S'c:/marmalade/7.3/s3e/h/std/ifaddrs.h'
p1948
sbsS'memory.h'
p1949
g286
(g1026
g288
Ntp1950
Rp1951
(dp1952
g1030
g1031
sg1032
g1056
sg312
S'c:/marmalade/7.3/s3e/h/std/memory.h'
p1953
sbsS'gl.h'
p1954
g286
(g1026
g288
Ntp1955
Rp1956
(dp1957
g1030
g1031
sg1032
g1574
sg312
S'c:/marmalade/7.3/s3e/h/GLES/gl.h'
p1958
sbsS'getopt.h'
p1959
g286
(g1026
g288
Ntp1960
Rp1961
(dp1962
g1030
g1031
sg1032
g1056
sg312
S'c:/marmalade/7.3/s3e/h/std/getopt.h'
p1963
sbsS'cmath'
p1964
g286
(g1026
g288
Ntp1965
Rp1966
(dp1967
g1030
g1031
sg1032
g1033
sg312
S'c:/marmalade/7.3/s3e/h/std/c++/cmath'
p1968
sbsS'strstream'
p1969
g286
(g1026
g288
Ntp1970
Rp1971
(dp1972
g1030
g1031
sg1032
g1033
sg312
S'c:/marmalade/7.3/s3e/h/std/c++/strstream'
p1973
sbsS'IwOptimiseARM.h'
p1974
g286
(g1026
g288
Ntp1975
Rp1976
(dp1977
g1030
g862
sg1032
g1042
sg312
g893
sbsS'times.h'
p1978
g286
(g1026
g288
Ntp1979
Rp1980
(dp1981
g1030
g1031
sg1032
g1220
sg312
S'c:/marmalade/7.3/s3e/h/std/sys/times.h'
p1982
sbsS'exception'
p1983
g286
(g1026
g288
Ntp1984
Rp1985
(dp1986
g1030
g1031
sg1032
g1033
sg312
S'c:/marmalade/7.3/s3e/h/std/c++/exception'
p1987
sbsS'pthread.h'
p1988
g286
(g1026
g288
Ntp1989
Rp1990
(dp1991
g1030
g1031
sg1032
g1056
sg312
S'c:/marmalade/7.3/s3e/h/std/pthread.h'
p1992
sbsS'IwTextParserITX.h'
p1993
g286
(g1026
g288
Ntp1994
Rp1995
(dp1996
g1030
g862
sg1032
g1042
sg312
g952
sbsS'rlocks.h'
p1997
g286
(g1026
g288
Ntp1998
Rp1999
(dp2000
g1030
g1031
sg1032
g1033
sg312
S'c:/marmalade/7.3/s3e/h/std/c++/rlocks.h'
p2001
sbsS'functional'
p2002
g286
(g1026
g288
Ntp2003
Rp2004
(dp2005
g1030
g1031
sg1032
g1033
sg312
S'c:/marmalade/7.3/s3e/h/std/c++/functional'
p2006
sbsS'ioctl.h'
p2007
g286
(g1026
g288
Ntp2008
Rp2009
(dp2010
g1030
g1031
sg1032
g1220
sg312
S'c:/marmalade/7.3/s3e/h/std/sys/ioctl.h'
p2011
sbsS'rope'
p2012
g286
(g1026
g288
Ntp2013
Rp2014
(dp2015
g1030
g1031
sg1032
g1033
sg312
S'c:/marmalade/7.3/s3e/h/std/c++/rope'
p2016
sbsS's3eAndroidJNI.h'
p2017
g286
(g1026
g288
Ntp2018
Rp2019
(dp2020
g1030
g1031
sg1032
g1194
sg312
S'c:/marmalade/7.3/s3e/h/ext/s3eAndroidJNI.h'
p2021
sbsS'jinclude.h'
p2022
g286
(g1026
g288
Ntp2023
Rp2024
(dp2025
g1030
g990
sg1032
g1179
sg312
g1011
sbsS'IwEvent.h'
p2026
g286
(g1026
g288
Ntp2027
Rp2028
(dp2029
g1030
g862
sg1032
g1042
sg312
g932
sbsS'IwTypes.h'
p2030
g286
(g1026
g288
Ntp2031
Rp2032
(dp2033
g1030
g862
sg1032
g1042
sg312
g936
sbsS's3eSocket.h'
p2034
g286
(g1026
g288
Ntp2035
Rp2036
(dp2037
g1030
g1031
sg1032
g1078
sg312
S'c:/marmalade/7.3/s3e/h/s3eSocket.h'
p2038
sbsS'IwOptimiseSize.h'
p2039
g286
(g1026
g288
Ntp2040
Rp2041
(dp2042
g1030
g862
sg1032
g1042
sg312
g954
sbsS'IwAutoFile.h'
p2043
g286
(g1026
g288
Ntp2044
Rp2045
(dp2046
g1030
g862
sg1032
g1042
sg312
g891
sbsS'iconv.h'
p2047
g286
(g1026
g288
Ntp2048
Rp2049
(dp2050
g1030
g1031
sg1032
g1056
sg312
S'c:/marmalade/7.3/s3e/h/std/iconv.h'
p2051
sbsS'ipc.h'
p2052
g286
(g1026
g288
Ntp2053
Rp2054
(dp2055
g1030
g1031
sg1032
g1220
sg312
S'c:/marmalade/7.3/s3e/h/std/sys/ipc.h'
p2056
sbsS's3eDevice.h'
p2057
g286
(g1026
g288
Ntp2058
Rp2059
(dp2060
g1030
g1031
sg1032
g1078
sg312
S'c:/marmalade/7.3/s3e/h/s3eDevice.h'
p2061
sbsS'poll_1.h'
p2062
g286
(g1026
g288
Ntp2063
Rp2064
(dp2065
g1030
g1031
sg1032
g1220
sg312
S'c:/marmalade/7.3/s3e/h/std/sys/poll.h'
p2066
sbsS's3eThread.h'
p2067
g286
(g1026
g288
Ntp2068
Rp2069
(dp2070
g1030
g1031
sg1032
g1078
sg312
S'c:/marmalade/7.3/s3e/h/s3eThread.h'
p2071
sbsS'stl_user_config.h'
p2072
g286
(g1026
g288
Ntp2073
Rp2074
(dp2075
g1030
g1031
sg1032
g1033
sg312
S'c:/marmalade/7.3/s3e/h/std/c++/stl_user_config.h'
p2076
sbsS'IwList.h'
p2077
g286
(g1026
g288
Ntp2078
Rp2079
(dp2080
g1030
g862
sg1032
g1042
sg312
g901
sbsS'langinfo.h'
p2081
g286
(g1026
g288
Ntp2082
Rp2083
(dp2084
g1030
g1031
sg1032
g1056
sg312
S'c:/marmalade/7.3/s3e/h/std/langinfo.h'
p2085
sbsS's3edebugHeap.h'
p2086
g286
(g1026
g288
Ntp2087
Rp2088
(dp2089
g1030
g1031
sg1032
g1194
sg312
S'c:/marmalade/7.3/s3e/h/ext/s3edebugHeap.h'
p2090
sbsS'jdct.h'
p2091
g286
(g1026
g288
Ntp2092
Rp2093
(dp2094
g1030
g990
sg1032
g1179
sg312
g1003
sbsS'AirplayVersion.h'
p2095
g286
(g1026
g288
Ntp2096
Rp2097
(dp2098
g1030
g1031
sg1032
g1078
sg312
S'c:/marmalade/7.3/s3e/h/AirplayVersion.h'
p2099
sbsS'jchuff.h'
p2100
g286
(g1026
g288
Ntp2101
Rp2102
(dp2103
g1030
g990
sg1032
g1179
sg312
g1009
sbsS'IwProfileMenu.h'
p2104
g286
(g1026
g288
Ntp2105
Rp2106
(dp2107
g1030
g862
sg1032
g1042
sg312
g907
sbsS's3eSoundRecord.h'
p2108
g286
(g1026
g288
Ntp2109
Rp2110
(dp2111
g1030
g1031
sg1032
g1078
sg312
S'c:/marmalade/7.3/s3e/h/s3eSoundRecord.h'
p2112
sbsS'gl2extimg.h'
p2113
g286
(g1026
g288
Ntp2114
Rp2115
(dp2116
g1030
g1031
sg1032
g1295
sg312
S'c:/marmalade/7.3/s3e/h/GLES2/gl2extimg.h'
p2117
sbsS'IwFibre.h'
p2118
g286
(g1026
g288
Ntp2119
Rp2120
(dp2121
g1030
g862
sg1032
g1042
sg312
g926
sbsS's3eConfig.h'
p2122
g286
(g1026
g288
Ntp2123
Rp2124
(dp2125
g1030
g1031
sg1032
g1078
sg312
S'c:/marmalade/7.3/s3e/h/s3eConfig.h'
p2126
sbsS'IwHashString.h'
p2127
g286
(g1026
g288
Ntp2128
Rp2129
(dp2130
g1030
g862
sg1032
g1042
sg312
g875
sbsS'stat.h'
p2131
g286
(g1026
g288
Ntp2132
Rp2133
(dp2134
g1030
g1031
sg1032
g1220
sg312
S'c:/marmalade/7.3/s3e/h/std/sys/stat.h'
p2135
sbsS's3eVersion.h'
p2136
g286
(g1026
g288
Ntp2137
Rp2138
(dp2139
g1030
g1031
sg1032
g1078
sg312
S'c:/marmalade/7.3/s3e/h/s3eVersion.h'
p2140
sbsS'MarmaladeVersion.h'
p2141
g286
(g1026
g288
Ntp2142
Rp2143
(dp2144
g1030
g1031
sg1032
g1078
sg312
S'c:/marmalade/7.3/s3e/h/MarmaladeVersion.h'
p2145
sbsS'utility'
p2146
g286
(g1026
g288
Ntp2147
Rp2148
(dp2149
g1030
g1031
sg1032
g1033
sg312
S'c:/marmalade/7.3/s3e/h/std/c++/utility'
p2150
sbsS'syslog.h'
p2151
g286
(g1026
g288
Ntp2152
Rp2153
(dp2154
g1030
g1031
sg1032
g1056
sg312
S'c:/marmalade/7.3/s3e/h/std/syslog.h'
p2155
sbsS'IwUtilInitTerm.h'
p2156
g286
(g1026
g288
Ntp2157
Rp2158
(dp2159
g1030
g862
sg1032
g1042
sg312
g867
sbsS'byteswap.h'
p2160
g286
(g1026
g288
Ntp2161
Rp2162
(dp2163
g1030
g1031
sg1032
g1056
sg312
S'c:/marmalade/7.3/s3e/h/std/byteswap.h'
p2164
sbsS'ios.h'
p2165
g286
(g1026
g288
Ntp2166
Rp2167
(dp2168
g1030
g1031
sg1032
g1033
sg312
S'c:/marmalade/7.3/s3e/h/std/c++/ios.h'
p2169
sbsS'bitset'
p2170
g286
(g1026
g288
Ntp2171
Rp2172
(dp2173
g1030
g1031
sg1032
g1033
sg312
S'c:/marmalade/7.3/s3e/h/std/c++/bitset'
p2174
sbsS'IwImageHelper.h'
p2175
g286
(g1026
g288
Ntp2176
Rp2177
(dp2178
g1030
g862
sg1032
g1042
sg312
g928
sbsS's3eKeyboard.h'
p2179
g286
(g1026
g288
Ntp2180
Rp2181
(dp2182
g1030
g1031
sg1032
g1078
sg312
S'c:/marmalade/7.3/s3e/h/s3eKeyboard.h'
p2183
sbsS'pthread_1.h'
p2184
g286
(g1026
g288
Ntp2185
Rp2186
(dp2187
g1030
g1031
sg1032
g1033
sg312
S'c:/marmalade/7.3/s3e/h/std/c++/pthread.h'
p2188
sbsS'IwMemBucket.h'
p2189
g286
(g1026
g288
Ntp2190
Rp2191
(dp2192
g1030
g862
sg1032
g1042
sg312
g918
sbsS's3e.mkf'
p2193
g286
(g1026
g288
Ntp2194
Rp2195
(dp2196
g1030
(dp2197
sg1032
g1078
sg312
S'c:/marmalade/7.3/s3e/s3e.mkf'
p2198
sbsS'hash_set'
p2199
g286
(g1026
g288
Ntp2200
Rp2201
(dp2202
g1030
g1031
sg1032
g1033
sg312
S'c:/marmalade/7.3/s3e/h/std/c++/hash_set'
p2203
sbsS's3eTypes.h'
p2204
g286
(g1026
g288
Ntp2205
Rp2206
(dp2207
g1030
g1031
sg1032
g1078
sg312
S'c:/marmalade/7.3/s3e/h/s3eTypes.h'
p2208
sbsS'complex'
p2209
g286
(g1026
g288
Ntp2210
Rp2211
(dp2212
g1030
g1031
sg1032
g1033
sg312
S'c:/marmalade/7.3/s3e/h/std/c++/complex'
p2213
sbsS'jmorecfg.h'
p2214
g286
(g1026
g288
Ntp2215
Rp2216
(dp2217
g1030
g990
sg1032
g1179
sg312
g1007
sbsS'eglplatform.h'
p2218
g286
(g1026
g288
Ntp2219
Rp2220
(dp2221
g1030
g1031
sg1032
g1687
sg312
S'c:/marmalade/7.3/s3e/h/EGL/eglplatform.h'
p2222
sbsS'signal_2.h'
p2223
g286
(g1026
g288
Ntp2224
Rp2225
(dp2226
g1030
g1031
sg1032
g1033
sg312
S'c:/marmalade/7.3/s3e/h/std/c++/signal.h'
p2227
sbsS'stdbool.h'
p2228
g286
(g1026
g288
Ntp2229
Rp2230
(dp2231
g1030
g1031
sg1032
g1056
sg312
S'c:/marmalade/7.3/s3e/h/std/stdbool.h'
p2232
sbsS's3e.icf'
p2233
g286
(g1026
g288
Ntp2234
Rp2235
(dp2236
g1030
g1031
sg1032
g1078
sg312
S'c:/marmalade/7.3/s3e/s3e.icf'
p2237
sbsS'math_gcc.h'
p2238
g286
(g1026
g288
Ntp2239
Rp2240
(dp2241
g1030
g1031
sg1032
g1056
sg312
S'c:/marmalade/7.3/s3e/h/std/math_gcc.h'
p2242
sbsS's3eMemory.h'
p2243
g286
(g1026
g288
Ntp2244
Rp2245
(dp2246
g1030
g1031
sg1032
g1078
sg312
S'c:/marmalade/7.3/s3e/h/s3eMemory.h'
p2247
sbsS'map'
p2248
g286
(g1026
g288
Ntp2249
Rp2250
(dp2251
g1030
g1031
sg1032
g1033
sg312
S'c:/marmalade/7.3/s3e/h/std/c++/map'
p2252
sbsS'sem.h'
p2253
g286
(g1026
g288
Ntp2254
Rp2255
(dp2256
g1030
g1031
sg1032
g1220
sg312
S'c:/marmalade/7.3/s3e/h/std/sys/sem.h'
p2257
sbsS'IwOptimiseSpeed.h'
p2258
g286
(g1026
g288
Ntp2259
Rp2260
(dp2261
g1030
g862
sg1032
g1042
sg312
g883
sbsS's3eLicense.h'
p2262
g286
(g1026
g288
Ntp2263
Rp2264
(dp2265
g1030
g1031
sg1032
g1078
sg312
S'c:/marmalade/7.3/s3e/h/s3eLicense.h'
p2266
sbsS'stdio.h'
p2267
g286
(g1026
g288
Ntp2268
Rp2269
(dp2270
g1030
g1031
sg1032
g1056
sg312
S'c:/marmalade/7.3/s3e/h/std/stdio.h'
p2271
sbsS's3eFile.h'
p2272
g286
(g1026
g288
Ntp2273
Rp2274
(dp2275
g1030
g1031
sg1032
g1078
sg312
S'c:/marmalade/7.3/s3e/h/s3eFile.h'
p2276
sbsS'jmemsys.h'
p2277
g286
(g1026
g288
Ntp2278
Rp2279
(dp2280
g1030
g990
sg1032
g1179
sg312
g991
sbsS'ios'
p2281
g286
(g1026
g288
Ntp2282
Rp2283
(dp2284
g1030
g1031
sg1032
g1033
sg312
S'c:/marmalade/7.3/s3e/h/std/c++/ios'
p2285
sbsS'gl3platform.h'
p2286
g286
(g1026
g288
Ntp2287
Rp2288
(dp2289
g1030
g1031
sg1032
g1527
sg312
S'c:/marmalade/7.3/s3e/h/GLES3/gl3platform.h'
p2290
sbsS'msl_string.h'
p2291
g286
(g1026
g288
Ntp2292
Rp2293
(dp2294
g1030
g1031
sg1032
g1033
sg312
S'c:/marmalade/7.3/s3e/h/std/c++/msl_string.h'
p2295
sbsS'select.h'
p2296
g286
(g1026
g288
Ntp2297
Rp2298
(dp2299
g1030
g1031
sg1032
g1220
sg312
S'c:/marmalade/7.3/s3e/h/std/sys/select.h'
p2300
sbsS'cerrno'
p2301
g286
(g1026
g288
Ntp2302
Rp2303
(dp2304
g1030
g1031
sg1032
g1033
sg312
S'c:/marmalade/7.3/s3e/h/std/c++/cerrno'
p2305
sbsS'slist'
p2306
g286
(g1026
g288
Ntp2307
Rp2308
(dp2309
g1030
g1031
sg1032
g1033
sg312
S'c:/marmalade/7.3/s3e/h/std/c++/slist'
p2310
sbsS'cstdlib'
p2311
g286
(g1026
g288
Ntp2312
Rp2313
(dp2314
g1030
g1031
sg1032
g1033
sg312
S'c:/marmalade/7.3/s3e/h/std/c++/cstdlib'
p2315
sbsS's3eLocation.h'
p2316
g286
(g1026
g288
Ntp2317
Rp2318
(dp2319
g1030
g1031
sg1032
g1078
sg312
S'c:/marmalade/7.3/s3e/h/s3eLocation.h'
p2320
sbsS'zlib.mkf'
p2321
g286
(g1026
g288
Ntp2322
Rp2323
(dp2324
g1030
g966
sg1032
(lp2325
g962
asg312
g964
sbsS'resource.h'
p2326
g286
(g1026
g288
Ntp2327
Rp2328
(dp2329
g1030
g1031
sg1032
g1220
sg312
S'c:/marmalade/7.3/s3e/h/std/sys/resource.h'
p2330
sbsS'pwd.h'
p2331
g286
(g1026
g288
Ntp2332
Rp2333
(dp2334
g1030
g1031
sg1032
g1056
sg312
S'c:/marmalade/7.3/s3e/h/std/pwd.h'
p2335
sbsS'signal.h'
p2336
g286
(g1026
g288
Ntp2337
Rp2338
(dp2339
g1030
g1031
sg1032
g1056
sg312
S'c:/marmalade/7.3/s3e/h/std/signal.h'
p2340
sbsS'csetjmp'
p2341
g286
(g1026
g288
Ntp2342
Rp2343
(dp2344
g1030
g1031
sg1032
g1033
sg312
S'c:/marmalade/7.3/s3e/h/std/c++/csetjmp'
p2345
sbsS's3eLibrary.h'
p2346
g286
(g1026
g288
Ntp2347
Rp2348
(dp2349
g1030
g1031
sg1032
g1194
sg312
S'c:/marmalade/7.3/s3e/h/ext/s3eLibrary.h'
p2350
sbsS'libpng.mkf'
p2351
g286
(g1026
g288
Ntp2352
Rp2353
(dp2354
g1030
g984
sg1032
(lp2355
g974
asg312
g982
sbsS'IwMemBucketHelpers.h'
p2356
g286
(g1026
g288
Ntp2357
Rp2358
(dp2359
g1030
g862
sg1032
g1042
sg312
g950
sbsS's3eHash.h'
p2360
g286
(g1026
g288
Ntp2361
Rp2362
(dp2363
g1030
g1031
sg1032
g1078
sg312
S'c:/marmalade/7.3/s3e/h/s3eHash.h'
p2364
sbsS'new.h'
p2365
g286
(g1026
g288
Ntp2366
Rp2367
(dp2368
g1030
g1031
sg1032
g1033
sg312
S'c:/marmalade/7.3/s3e/h/std/c++/new.h'
p2369
sbsS'math.h'
p2370
g286
(g1026
g288
Ntp2371
Rp2372
(dp2373
g1030
g1031
sg1032
g1056
sg312
S'c:/marmalade/7.3/s3e/h/std/math.h'
p2374
sbsS's3eClipboard.h'
p2375
g286
(g1026
g288
Ntp2376
Rp2377
(dp2378
g1030
g1031
sg1032
g1078
sg312
S'c:/marmalade/7.3/s3e/h/s3eClipboard.h'
p2379
sbsS'streambuf'
p2380
g286
(g1026
g288
Ntp2381
Rp2382
(dp2383
g1030
g1031
sg1032
g1033
sg312
S'c:/marmalade/7.3/s3e/h/std/c++/streambuf'
p2384
sbsS's3eDebug.h'
p2385
g286
(g1026
g288
Ntp2386
Rp2387
(dp2388
g1030
g1031
sg1032
g1078
sg312
S'c:/marmalade/7.3/s3e/h/s3eDebug.h'
p2389
sbsS's3eEMail.h'
p2390
g286
(g1026
g288
Ntp2391
Rp2392
(dp2393
g1030
g1031
sg1032
g1194
sg312
S'c:/marmalade/7.3/s3e/h/ext/s3eEMail.h'
p2394
sbsS'uio.h'
p2395
g286
(g1026
g288
Ntp2396
Rp2397
(dp2398
g1030
g1031
sg1032
g1220
sg312
S'c:/marmalade/7.3/s3e/h/std/sys/uio.h'
p2399
sbsS'glext.h'
p2400
g286
(g1026
g288
Ntp2401
Rp2402
(dp2403
g1030
g1031
sg1032
g1574
sg312
S'c:/marmalade/7.3/s3e/h/GLES/glext.h'
p2404
sbsS's3eVideo.h'
p2405
g286
(g1026
g288
Ntp2406
Rp2407
(dp2408
g1030
g1031
sg1032
g1078
sg312
S'c:/marmalade/7.3/s3e/h/s3eVideo.h'
p2409
sbsS'pngconf.h'
p2410
g286
(g1026
g288
Ntp2411
Rp2412
(dp2413
g1030
g979
sg1032
g1569
sg312
g977
sbsS'IwUncopyable.h'
p2414
g286
(g1026
g288
Ntp2415
Rp2416
(dp2417
g1030
g862
sg1032
g1042
sg312
g869
sbsS'gl3.h'
p2418
g286
(g1026
g288
Ntp2419
Rp2420
(dp2421
g1030
g1031
sg1032
g1527
sg312
S'c:/marmalade/7.3/s3e/h/GLES3/gl3.h'
p2422
sbsS'typeinfo.h'
p2423
g286
(g1026
g288
Ntp2424
Rp2425
(dp2426
g1030
g1031
sg1032
g1033
sg312
S'c:/marmalade/7.3/s3e/h/std/c++/typeinfo.h'
p2427
sbsS'IwMenu.h'
p2428
g286
(g1026
g288
Ntp2429
Rp2430
(dp2431
g1030
g862
sg1032
g1042
sg312
g903
sbssS'juice_build_type'
p2432
g4
sS'tests'
p2433
(lp2434
sS'project_name'
p2435
g294
sS'root_file'
p2436
g118
sS'current_root'
p2437
S'c:/Users/Randy/Documents/MarmaladeGames/OneTap'
p2438
sS'dependencies'
p2439
(lp2440
sS'include_paths'
p2441
(lp2442
S'c:/marmalade/7.3/modules/iwutil/h'
p2443
aS'c:/marmalade/7.3/modules/third_party/libjpeg/h'
p2444
aS'c:/marmalade/7.3/modules/third_party/zlib/h'
p2445
aS'c:/marmalade/7.3/modules/third_party/libpng/h'
p2446
aS'c:/marmalade/7.3/s3e/h'
p2447
aS'c:/marmalade/7.3/s3e/h/ext'
p2448
aS'c:/marmalade/7.3/s3e/h/std'
p2449
aS'c:/marmalade/7.3/s3e/h/std/c++'
p2450
aS'c:/marmalade/7.3/s3e/h/ext_legacy'
p2451
aS'c:/marmalade/7.3/s3e/h/legacy'
p2452
asS'weak_frameworks'
p2453
(lp2454
sS'extprojects'
p2455
(dp2456
sg458
(dp2457
g452
(lp2458
(g77
S'.'
p2459
I0
tp2460
assS'macro_types'
p2461
(dp2462
g423
I1
sg424
I0
sg425
I0
sg426
I0
sg427
I0
sg428
I0
sg429
I0
sg430
I1
sg431
I0
sg432
I0
sg434
I0
sg435
I0
sg436
I0
sg438
I01
sg439
I1
sg440
I0
sg441
I0
ssS'commands'
p2463
(lp2464
sg460
(g849
S'VC12X'
p2465
S'X86ARM'
p2466
tp2467
sS'build_libs'
p2468
(dp2469
sg462
g0
sS'frameworks'
p2470
(lp2471
sS'environ'
p2472
(dp2473
sS'target_name_debug'
p2474
g294
sS'builders'
p2475
(dp2476
g452
(dp2477
S'.S'
p2478
(dp2479
S'rvct'
p2480
(lp2481
S'.obj'
p2482
aS'echo ARM Assembling(RVCT) ${SOURCE}...'
p2483
aS'c:/marmalade/7.3/s3e\\rvct\\bin\\armasm -o ${TARGET} ${SOURCE}'
p2484
asS'gcc'
p2485
(lp2486
g2482
aS'echo ARM Assembling(GCC) ${SOURCE}...'
p2487
aS'c:/marmalade/7.3/s3e\\gcc\\bin\\arm-none-eabi-gcc -c -o ${TARGET} ${SOURCE}'
p2488
asS'ppu'
p2489
(lp2490
S'.a'
p2491
aS'echo PPU Assembling(SNC) ${SOURCE}...'
p2492
aS'c:/marmalade/7.3/s3e\\rvct\\bin\\armasm -o ${TARGET} ${SOURCE}'
p2493
assS'.s'
p2494
g2479
sssS'extproject_names'
p2495
(lp2496
sbtp2497
.