((dp0
S'arm_dbg_args'
p1
S'-via:"c:\\Users\\Randy\\Documents\\MarmaladeGames\\OneTap\\build_onetap_vc12x\\OneTap_vc12x_arm_debug.via" -qemu'
p2
sS'game-icf'
p3
S''
p4
sS'dist'
p5
NsS'csproj'
p6
g4
sS'module_path_append'
p7
NsS'global_path'
p8
S'c:\\users\\randy\\documents\\marmaladegames'
p9
sS'system_path'
p10
S'c:\\marmalade\\7.3\\s3e\\makefile_builder'
p11
sS'android_x86_dbg_args'
p12
S'../../tools/DeployTool/DeployTool.exe --dir "c:\\Users\\Randy\\Documents\\MarmaladeGames\\OneTap\\build_onetap_vc12x"'
p13
sS'no-emit'
p14
NsS'arm-float-abi'
p15
g4
sS'arm_rel_rtsm_args'
p16
S'-via:"c:\\Users\\Randy\\Documents\\MarmaladeGames\\OneTap\\build_onetap_vc12x\\OneTap_vc12x_arm_release.via" -qemu'
p17
sS'amd64'
p18
NsS'line-width'
p19
I80
sS'gcc_dbg_args'
p20
S'-via:"c:\\Users\\Randy\\Documents\\MarmaladeGames\\OneTap\\build_onetap_vc12x\\OneTap_vc12x_gcc_debug.via" -qemu'
p21
sS'android-x86'
p22
NsS'x86_dbg_exe'
p23
S'c:/marmalade/7.3/s3e\\win32\\s3e_simulator_debug.exe'
p24
sS'disable-runtime-checks'
p25
NsS'release'
p26
NsS'no-make'
p27
NsS'optimise-size'
p28
NsS'output-name-debug'
p29
g4
sS'arm-fpu'
p30
g4
sS'proj_name'
p31
S'OneTap_vc12x'
p32
sS'rvct-version'
p33
S'none'
p34
sS'compiler'
p35
g4
sS'execute'
p36
NsS'compile-static'
p37
NsS'msvc-project'
p38
NsS'buildenv'
p39
S'VC12X'
p40
sS'quick'
p41
NsS'module_path'
p42
NsS'use-release-std-libs'
p43
NsS'using_perforce'
p44
I00
sS'tizen-x86'
p45
NsS'mips-s3e'
p46
NsS's3e-api-lib-name'
p47
g4
sS'ios-no-pic'
p48
NsS'shared-arm-lib'
p49
NsS'arm-cpu'
p50
g4
sS'compile-thumb'
p51
NsS'no-ide'
p52
I01
sS'msvc-version'
p53
S'6.0'
p54
sS'arm'
p55
NsS'builddir'
p56
g4
sS'compile-debug-as-release'
p57
I0
sS'arm-arch'
p58
g4
sS'brief'
p59
NsS'dll'
p60
NsS'buildenv-toolset'
p61
g4
sS'version'
p62
NsS'ccache'
p63
I0
sS'offline'
p64
NsS'ios-version'
p65
g4
sS'hub_data'
p66
g4
sS'fake_vc_call'
p67
NsS'jobs'
p68
I0
sS'linkflags'
p69
NsS'debug'
p70
I01
sS'xcode-build-order'
p71
g4
sS'gcc_rel_rtsm_args'
p72
S'-via:"c:\\Users\\Randy\\Documents\\MarmaladeGames\\OneTap\\build_onetap_vc12x\\OneTap_vc12x_gcc_release.via" -qemu'
p73
sS'done_defaults'
p74
I1
sS'path'
p75
NsS's3e-data-dir'
p76
S'c:/Users/Randy/Documents/MarmaladeGames/OneTap\\data'
p77
sS'enable-exceptions'
p78
NsS'osx-dll'
p79
NsS'extension'
p80
g4
sS'no-vc6'
p81
NsS'non-interactive'
p82
NsS'win32-console'
p83
NsS'dist-format'
p84
g4
sS's3e-force-arch'
p85
NsS'dump_defines'
p86
NsS'use_prebuilt'
p87
NsS'gcc-version'
p88
g4
sS'x86_dbg_args'
p89
S'-via:"c:\\Users\\Randy\\Documents\\MarmaladeGames\\OneTap\\build_onetap_vc12x\\OneTap_vc12x_debug.via"'
p90
sS'tizen_x86_dbg_args'
p91
g13
sS'arm-debugger'
p92
g4
sS'use_temp_extension'
p93
NsS'verbose'
p94
I0
sS'log'
p95
NsS'no-strip'
p96
NsS'rebuild'
p97
NsS'win32-simulator-dll'
p98
NsS'strict'
p99
NsS'mips_dbg_args'
p100
g13
sS'enable-global-path'
p101
NsS'cflags'
p102
NsS'dist-dir'
p103
g4
sS'jflags'
p104
NsS'csprojSDKRefs'
p105
g4
sS'tizen_x86_rel_exe'
p106
S'c:\\marmalade\\7.3\\s3e\\makefile_builder\\tool_launcher.exe'
p107
sS'test-assets'
p108
g4
sS'distcc'
p109
NsS'external-compiler'
p110
NsS'no-distcc'
p111
NsS'preinclude'
p112
NsS'using_sdk'
p113
I01
sS'nologo'
p114
NsS'warn-level'
p115
I2
sS'mips_dbg_exe'
p116
g107
sS'mkb_in'
p117
S'c:/Users/Randy/Documents/MarmaladeGames/OneTap/OneTap.mkb'
p118
sS'tizen_x86_dbg_exe'
p119
g107
sS'arm_dbg_exe'
p120
S'c:/marmalade/7.3/s3e\\bin\\armdebug.exe'
p121
sS'csprojDLLRef'
p122
NsS'tizen_x86_rel_args'
p123
g13
sS'android_x86_dbg_exe'
p124
g107
sS'test-config'
p125
g4
sS'list-targets'
p126
NsS'arm_rel_exe'
p127
g107
sS'arm_rel_args'
p128
g13
sS'makedeps'
p129
NsS'android_x86_rel_exe'
p130
g107
sS'default-buildenv'
p131
S'VC12X'
p132
sS'x86_rel_exe'
p133
g24
sS'preprocess-java'
p134
NsS'mips_rel_args'
p135
g13
sS'defines'
p136
NsS'lib'
p137
NsS'global_argv'
p138
(lp139
S'C:\\Marmalade\\7.3\\s3e\\makefile_builder\\mkb.py'
p140
aS'C:/Users/Randy/Documents/MarmaladeGames/OneTap/OneTap.mkb'
p141
aS'--buildenv=VC12X'
p142
aS'--debug'
p143
aS'--x86'
p144
aS'--no-ide'
p145
aS'--make'
p146
asS'make'
p147
I01
sS'optimise-speed'
p148
NsS'internal'
p149
NsS'enable-stdinc'
p150
NsS'deploy-only'
p151
NsS'x86'
p152
I01
sS'deploy'
p153
g4
sS'x86_run_exe'
p154
S'c:/marmalade/7.3/s3e\\win32\\s3e_console.exe'
p155
sS'x86_rel_args'
p156
S'-via:"c:\\Users\\Randy\\Documents\\MarmaladeGames\\OneTap\\build_onetap_vc12x\\OneTap_vc12x_release.via"'
p157
sS'gcc_rel_args'
p158
g13
sS'mips'
p159
NsS'xcode-build-settings'
p160
g4
sS'incredibuild'
p161
NsS'strict-compile'
p162
NsS'use-auto-subdirs'
p163
NsS'mips_rel_exe'
p164
g107
sS'android_x86_rel_args'
p165
g13
sS'app-icf'
p166
g4
sS'deployargs'
p167
NsS'iosnativedebug'
p168
NsS'mkf_in'
p169
(lp170
S'c:\\marmalade\\7.3\\modules\\iwutil\\iwutil.mkf'
p171
aS'c:\\marmalade\\7.3\\modules\\third_party\\libjpeg\\libjpeg.mkf'
p172
aS'c:\\marmalade\\7.3\\modules\\third_party\\libpng\\libpng.mkf'
p173
aS'c:\\marmalade\\7.3\\modules\\third_party\\zlib\\zlib.mkf'
p174
asS'strict-mkb'
p175
NsS'executeargs'
p176
NsS'clean'
p177
NsS'no-asm'
p178
NsS'output-name'
p179
g4
sS'no-modules'
p180
NsS'find_define'
p181
g4
s(dp182
S'c:\\marmalade\\7.3\\s3e\\makefile_builder\\templates\\xcode_pbxuser.py'
p183
F1401412654.0
sS'c:\\marmalade\\7.3\\s3e\\makefile_builder\\plugins\\s3e_xcode.pyc'
p184
F1403055521.2948146
sS'c:\\marmalade\\7.3\\s3e\\makefile_builder\\plugins\\osx_scons.pyc'
p185
F1401413938.0
sS'c:\\marmalade\\7.3\\s3e\\makefile_builder\\extensions'
p186
F1403050895.7303419
sS'c:\\marmalade\\7.3\\s3e\\makefile_builder\\templates\\win8_sln.pyc'
p187
F1401413938.0
sS'c:\\marmalade\\7.3\\s3e\\makefile_builder\\plugins\\s3e_wp8.pyc'
p188
F1401413938.0
sS'c:\\marmalade\\7.3\\s3e\\makefile_builder\\mkb_launcher.exe'
p189
F1401413054.0
sS'c:\\marmalade\\7.3\\s3e\\makefile_builder\\plugins\\null.pyc'
p190
F1401413936.0
sS'c:\\marmalade\\7.3\\s3e\\makefile_builder\\plugins\\s3e_web.pyc'
p191
F1401413936.0
sS'c:\\marmalade\\7.3\\s3e\\makefile_builder\\plugins\\SConsEmitter.pyc'
p192
F1401413936.0
sS'c:\\marmalade\\7.3\\s3e\\makefile_builder\\mkb_util.pyc'
p193
F1401413936.0
sS'c:\\marmalade\\7.3\\s3e\\makefile_builder\\templates\\ws8_csproj_user.pyc'
p194
F1401413938.0
sS'c:\\marmalade\\7.3\\s3e\\makefile_builder\\mkb_upstream.pyc'
p195
F1401413936.0
sS'c:\\marmalade\\7.3\\s3e\\makefile_builder\\templates\\win8_csproj.pyc'
p196
F1401413938.0
sS'c:\\marmalade\\7.3\\s3e\\makefile_builder\\docs\\deprecated.options.txt'
p197
F1401412654.0
sS'c:\\marmalade\\7.3\\s3e\\makefile_builder\\templates\\wp8_csproj_user.pyc'
p198
F1401413938.0
sS'c:\\marmalade\\7.3\\s3e\\makefile_builder\\extensions\\make_dist.py'
p199
F1401412654.0
sS'c:\\marmalade\\7.3\\s3e\\makefile_builder\\docs\\deprecated.defines.txt'
p200
F1401412654.0
sS'c:\\marmalade\\7.3\\s3e\\makefile_builder\\templates\\wp8_csproj.pyc'
p201
F1401413938.0
sS'c:\\marmalade\\7.3\\s3e\\makefile_builder\\templates\\vc8_user.pyc'
p202
F1401413938.0
sS'c:\\marmalade\\7.3\\s3e\\makefile_builder\\plugins\\wp8_wp8.pyc'
p203
F1401413938.0
sS'c:\\marmalade\\7.3\\s3e\\makefile_builder\\deployment.pyc'
p204
F1401413936.0
sS'c:\\marmalade\\7.3\\s3e\\makefile_builder\\docs\\mkb.defines.txt'
p205
F1401412654.0
sS'c:\\marmalade\\7.3\\s3e\\makefile_builder\\plugins'
p206
F1403055521.2938144
sS'c:\\marmalade\\7.3\\s3e\\makefile_builder\\templates\\wp8_sln.pyc'
p207
F1401413938.0
sS'c:\\marmalade\\7.3\\s3e\\makefile_builder\\templates\\rvct_linker_script'
p208
F1401412654.0
sS'c:\\marmalade\\7.3\\s3e\\makefile_builder\\mkb_main.pyc'
p209
F1401413936.0
sS'c:\\marmalade\\7.3\\s3e\\makefile_builder\\templates\\win32_vcxproj_filters.pyc'
p210
F1401413938.0
sS'c:\\marmalade\\7.3\\s3e\\makefile_builder\\templates\\xcode4_DeployTool.xcscheme'
p211
F1401412654.0
sS'c:\\marmalade\\7.3\\s3e\\makefile_builder\\plugins\\s3e_ws81.pyc'
p212
F1401413938.0
sS'c:\\marmalade\\7.3\\s3e\\makefile_builder\\templates\\scons.pyc'
p213
F1401413938.0
sS'c:\\marmalade\\7.3\\s3e\\makefile_builder\\templates\\ws8_csproj.pyc'
p214
F1401413938.0
sS'c:\\marmalade\\7.3\\s3e\\makefile_builder\\templates'
p215
F1403050895.7253418
sS'c:\\marmalade\\7.3\\s3e\\makefile_builder\\plugins\\s3e_scons.pyc'
p216
F1401413936.0
sS'c:\\marmalade\\7.3\\s3e\\makefile_builder\\plugins\\XcodeEmitter.py'
p217
F1401412654.0
sS'c:\\marmalade\\7.3\\s3e\\makefile_builder\\templates\\win32_dsp.pyc'
p218
F1401413938.0
sS'c:\\marmalade\\7.3\\s3e\\makefile_builder\\plugins\\s3e_qmake.py'
p219
F1401412654.0
sS'c:\\marmalade\\7.3\\s3e\\makefile_builder\\mkb.py'
p220
F1401412654.0
sS'c:\\marmalade\\7.3\\s3e\\makefile_builder\\templates\\win32_sln.pyc'
p221
F1401413938.0
sS'c:\\marmalade\\7.3\\s3e\\makefile_builder\\plugins\\linux_scons.pyc'
p222
F1401413938.0
sS'c:\\marmalade\\7.3\\s3e\\makefile_builder\\templates\\ws81_ext_csproj.pyc'
p223
F1401413938.0
sS'c:\\marmalade\\7.3\\s3e\\makefile_builder\\templates\\win8_vcxproj.pyc'
p224
F1401413938.0
sS'c:\\marmalade\\7.3\\s3e\\makefile_builder\\templates\\win32_vcxproj.pyc'
p225
F1401413938.0
sS'c:\\marmalade\\7.3\\s3e\\makefile_builder\\templates\\vc7_suo.pyc'
p226
F1401413938.0
sS'c:\\marmalade\\7.3\\s3e\\makefile_builder\\templates\\make.py'
p227
F1401412654.0
sS'c:\\marmalade\\7.3\\s3e\\makefile_builder\\templates\\wp8_vcxproj.pyc'
p228
F1401413938.0
sS'c:\\marmalade\\7.3\\s3e\\makefile_builder\\plugins\\MakeEmitter.pyc'
p229
F1401413936.0
sS'c:\\marmalade\\7.3\\s3e\\makefile_builder\\plugins\\deploy.pyc'
p230
F1401413936.0
sS'c:\\marmalade\\7.3\\s3e\\makefile_builder\\plugins\\VisualStudioEmitter.pyc'
p231
F1401413936.0
sS'c:\\marmalade\\7.3\\s3e\\makefile_builder\\plugins\\ws81_ws81.pyc'
p232
F1401413938.0
sS'c:\\marmalade\\7.3\\s3e\\makefile_builder\\docs\\parse_options.pyc'
p233
F1401413938.0
sS'c:\\marmalade\\7.3\\s3e\\makefile_builder\\templates\\win32_dsw.pyc'
p234
F1401413938.0
sS'c:\\marmalade\\7.3\\s3e\\makefile_builder\\plugins\\s3e_make.pyc'
p235
F1401413936.0
sS'c:\\marmalade\\7.3\\s3e\\makefile_builder\\templates\\ws8_sln.pyc'
p236
F1401413938.0
sS'c:\\marmalade\\7.3\\s3e\\makefile_builder\\templates\\ws81_vcxproj.pyc'
p237
F1401413938.0
sS'c:\\marmalade\\7.3\\s3e\\makefile_builder\\templates\\win8_csproj_user.pyc'
p238
F1401413938.0
sS'c:\\marmalade\\7.3\\s3e\\makefile_builder\\templates\\ws81_ext_sln.pyc'
p239
F1401413938.0
sS'c:\\marmalade\\7.3\\s3e\\makefile_builder\\plugins\\XcodeEmitter.pyc'
p240
F1403055518.5596581
sS'c:\\marmalade\\7.3\\s3e\\makefile_builder\\templates\\mips_linker_script'
p241
F1401412654.0
sS'c:\\marmalade\\7.3\\s3e\\makefile_builder\\docs'
p242
F1403050895.764344
sS'c:\\marmalade\\7.3\\s3e\\makefile_builder\\templates\\xcode4_arm.xcscheme'
p243
F1401412654.0
sS'c:\\marmalade\\7.3\\s3e\\makefile_builder\\templates\\ws81_csproj.pyc'
p244
F1401413938.0
sS'c:\\marmalade\\7.3\\s3e\\makefile_builder\\templates\\ws8_ext_sln.pyc'
p245
F1401413938.0
sS'c:\\marmalade\\7.3\\s3e\\makefile_builder\\plugins\\Emitter.pyc'
p246
F1401413936.0
sS'c:\\marmalade\\7.3\\s3e\\makefile_builder\\templates\\template.opt'
p247
F1401412654.0
sS'c:\\marmalade\\7.3\\s3e\\makefile_builder\\plugins\\vc6_utils.pyc'
p248
F1401413936.0
sS'c:\\marmalade\\7.3\\s3e\\makefile_builder\\templates\\linker_script'
p249
F1401412654.0
sS'c:\\marmalade\\7.3\\s3e\\makefile_builder\\templates\\xcode4.xcscheme'
p250
F1401412654.0
sS'c:\\marmalade\\7.3\\s3e\\makefile_builder\\plugins\\Win8Emitter.pyc'
p251
F1401413938.0
sS'c:\\marmalade\\7.3\\s3e\\makefile_builder\\templates\\Info.plist'
p252
F1401412654.0
sS'c:\\marmalade\\7.3\\s3e\\makefile_builder\\plugins\\s3e_xcode.py'
p253
F1401412654.0
sS'c:\\marmalade\\7.3\\s3e\\makefile_builder\\docs\\options.txt'
p254
F1401412654.0
sS'c:\\marmalade\\7.3\\s3e\\makefile_builder\\templates\\ws81_csproj_user.pyc'
p255
F1401413938.0
sS'c:\\marmalade\\7.3\\s3e\\makefile_builder\\templates\\qmake.py'
p256
F1401412654.0
sS'c:\\marmalade\\7.3\\s3e\\makefile_builder\\plugins\\win32_vc6.pyc'
p257
F1401413938.0
sS'c:\\marmalade\\7.3\\s3e\\makefile_builder\\plugins\\ws8_ws8.pyc'
p258
F1401413938.0
sS'c:\\marmalade\\7.3\\s3e\\makefile_builder\\plugins\\osx_xcode.pyc'
p259
F1401413938.0
sS'c:\\marmalade\\7.3\\s3e\\makefile_builder\\templates\\ws81_sln.pyc'
p260
F1401413938.0
sS'c:\\marmalade\\7.3\\s3e\\makefile_builder\\templates\\win32_vcproj.pyc'
p261
F1401413938.0
sS'c:\\marmalade\\7.3\\s3e\\makefile_builder\\plugins\\s3e_vc6.pyc'
p262
F1401413936.0
sS'c:\\marmalade\\7.3\\s3e\\makefile_builder\\mkb_option.pyc'
p263
F1401413936.0
sS'c:\\marmalade\\7.3\\s3e\\makefile_builder\\templates\\vc6_opt.pyc'
p264
F1401413938.0
sS'c:\\marmalade\\7.3\\s3e\\makefile_builder\\templates\\win8_ext_csproj.pyc'
p265
F1401413938.0
sS'c:\\marmalade\\7.3\\s3e\\makefile_builder\\plugins\\s3e_win8.pyc'
p266
F1401413938.0
sS'c:\\marmalade\\7.3\\s3e\\makefile_builder\\templates\\template.suo'
p267
F1401412654.0
sS'c:\\marmalade\\7.3\\s3e\\makefile_builder\\templates\\ws8_vcxproj.pyc'
p268
F1401413938.0
sS'c:\\marmalade\\7.3\\s3e\\makefile_builder\\templates\\vc10_user.pyc'
p269
F1401413938.0
sS'c:\\marmalade\\7.3\\s3e\\makefile_builder\\templates\\wp8_ext_csproj.pyc'
p270
F1401413938.0
sS'c:\\marmalade\\7.3\\s3e\\makefile_builder\\plugins\\java.pyc'
p271
F1401413936.0
sS'c:\\marmalade\\7.3\\s3e\\makefile_builder\\templates\\MainWindow.xib'
p272
F1401412654.0
sS'c:\\marmalade\\7.3\\s3e\\makefile_builder\\templates\\qmake_user.py'
p273
F1401412654.0
sS'c:\\marmalade\\7.3\\s3e\\makefile_builder\\plugins\\win8_utils.pyc'
p274
F1401413936.0
sS'c:\\marmalade\\7.3\\s3e\\makefile_builder\\templates\\xcode.py'
p275
F1401412654.0
sS'c:\\marmalade\\7.3\\s3e\\makefile_builder\\mkb_parser.pyc'
p276
F1401413936.0
sS'c:\\marmalade\\7.3\\s3e\\makefile_builder\\plugins\\xcode4_schememanagement.pyc'
p277
F1403055518.6856651
sS'c:\\marmalade\\7.3\\s3e\\makefile_builder\\plugins\\s3e_qmake.pyc'
p278
F1403055519.9997404
sS'c:\\marmalade\\7.3\\s3e\\makefile_builder\\templates\\ws8_ext_csproj.pyc'
p279
F1401413938.0
sS'c:\\marmalade\\7.3\\s3e\\makefile_builder\\plugins\\S3EEmitter.pyc'
p280
F1401413936.0
sS'c:\\marmalade\\7.3\\s3e\\makefile_builder\\plugins\\xcode4_schememanagement.py'
p281
F1401412654.0
sS'c:\\marmalade\\7.3\\s3e\\makefile_builder\\plugins\\s3e_ws8.pyc'
p282
F1401413938.0
sS'c:\\marmalade\\7.3\\s3e\\makefile_builder\\mkb_globals.pyc'
p283
F1401413936.0
sS'c:\\marmalade\\7.3\\s3e\\makefile_builder\\templates\\gdb_start.txt'
p284
F1401412654.0
sS'c:\\marmalade\\7.3\\s3e\\makefile_builder\\docs\\deployment_options.txt'
p285
F1401412654.0
sS'c:\\marmalade\\7.3\\s3e\\makefile_builder\\plugins\\vc7_utils.pyc'
p286
F1401413936.0
sS'c:\\marmalade\\7.3\\s3e\\makefile_builder\\tool_launcher.exe'
p287
F1401413054.0
sS'c:\\marmalade\\7.3\\s3e\\makefile_builder\\plugins\\iphone.pyc'
p288
F1401413938.0
sccopy_reg
_reconstructor
p289
(cmkb_main
MkbFile
p290
c__builtin__
object
p291
Ntp292
Rp293
(dp294
g5
(lp295
sS'target_name'
p296
S'OneTap'
p297
sS'current_file'
p298
g118
sS'package_path'
p299
(lp300
sS'post_build'
p301
(lp302
(lp303
S'c:/marmalade/7.3/s3e/tools'
p304
aS'C:\\Marmalade\\7.3\\s3e\\python\\python.exe .\\process_map.py "$(TargetPath)"'
p305
aa(S'c:\\marmalade\\7.3\\s3e\\bin'
p306
S'"s3e_plink" -l "$(TargetPath)" '
p307
g152
tp308
asS'librarys'
p309
(lp310
g289
(cmkb_main
Library
p311
g291
Ntp312
Rp313
(dp314
S'name'
p315
S'vc6_compat.lib'
p316
sS'expand_name'
p317
I00
sS'include_spec_rvct_objs'
p318
(lp319
sS'include_all_objs'
p320
I00
sS'share_arm'
p321
I00
sS'arch'
p322
S'x86'
p323
sS'nodebug'
p324
I00
sg35
Nsbag289
(g311
g291
Ntp325
Rp326
(dp327
g315
S'iwutil'
p328
sg317
I01
sg318
(lp329
sg320
Nsg321
Nsg322
Nsg324
I00
sg35
Nsbag289
(g311
g291
Ntp330
Rp331
(dp332
g315
S'jpeg'
p333
sg317
I01
sg318
g329
sg320
Nsg321
Nsg322
Nsg324
I00
sg35
Nsbag289
(g311
g291
Ntp334
Rp335
(dp336
g315
S'z'
p337
sg317
I01
sg318
g329
sg320
Nsg321
Nsg322
Nsg324
I00
sg35
Nsbag289
(g311
g291
Ntp338
Rp339
(dp340
g315
S'png'
p341
sg317
I01
sg318
g329
sg320
Nsg321
Nsg322
Nsg324
I00
sg35
Nsbag289
(g311
g291
Ntp342
Rp343
(dp344
g315
S's3e_cpp'
p345
sg317
I01
sg318
g319
sg320
I00
sg321
I00
sg322
Nsg324
I00
sg35
Nsbag289
(g311
g291
Ntp346
Rp347
(dp348
g315
S's3e'
p349
sg317
I01
sg318
(lp350
S'iwcrt.o'
p351
asg320
I00
sg321
I00
sg322
Nsg324
I00
sg35
Nsbag289
(g311
g291
Ntp352
Rp353
(dp354
g315
S's3e_api'
p355
sg317
I01
sg318
g319
sg320
I00
sg321
I00
sg322
S'x86'
p356
sg324
I01
sg35
Nsbag289
(g311
g291
Ntp357
Rp358
(dp359
g315
S's3e_api'
p360
sg317
I01
sg318
g319
sg320
I00
sg321
I00
sg322
S'!x86'
p361
sg324
I01
sg35
Nsbag289
(g311
g291
Ntp362
Rp363
(dp364
g315
S'stdc++'
p365
sg317
I00
sg318
g319
sg320
I00
sg321
I00
sg322
S'mips'
p366
sg324
I00
sg35
Nsbag289
(g311
g291
Ntp367
Rp368
(dp369
g315
S'c'
p370
sg317
I00
sg318
g319
sg320
I00
sg321
I00
sg322
S'mips'
p371
sg324
I00
sg35
Nsbag289
(g311
g291
Ntp372
Rp373
(dp374
g315
S'm'
p375
sg317
I00
sg318
g319
sg320
I00
sg321
I00
sg322
S'mips'
p376
sg324
I00
sg35
Nsbag289
(g311
g291
Ntp377
Rp378
(dp379
g315
S'gcc'
p380
sg317
I00
sg318
g319
sg320
I00
sg321
I00
sg322
S'mips'
p381
sg324
I00
sg35
Nsbag289
(g311
g291
Ntp382
Rp383
(dp384
g315
S'stdc++'
p385
sg317
I00
sg318
g319
sg320
I00
sg321
I00
sg322
S'gcc_x86_android'
p386
sg324
I00
sg35
Nsbag289
(g311
g291
Ntp387
Rp388
(dp389
g315
g370
sg317
I00
sg318
g319
sg320
I00
sg321
I00
sg322
S'gcc_x86_android'
p390
sg324
I00
sg35
Nsbag289
(g311
g291
Ntp391
Rp392
(dp393
g315
g375
sg317
I00
sg318
g319
sg320
I00
sg321
I00
sg322
S'gcc_x86_android'
p394
sg324
I00
sg35
Nsbag289
(g311
g291
Ntp395
Rp396
(dp397
g315
S'gcc'
p398
sg317
I00
sg318
g319
sg320
I00
sg321
I00
sg322
S'gcc_x86_android'
p399
sg324
I00
sg35
NsbasS'library_paths'
p400
(lp401
g289
(cmkb_main
LibraryPath
p402
g291
Ntp403
Rp404
(dp405
S'expand_path'
p406
I01
sg315
S'c:/marmalade/7.3/modules/iwutil'
p407
sbag289
(g402
g291
Ntp408
Rp409
(dp410
g406
I01
sg315
S'c:/marmalade/7.3/modules/third_party/libjpeg'
p411
sbag289
(g402
g291
Ntp412
Rp413
(dp414
g406
I01
sg315
S'c:/marmalade/7.3/modules/third_party/zlib'
p415
sbag289
(g402
g291
Ntp416
Rp417
(dp418
g406
I01
sg315
S'c:/marmalade/7.3/modules/third_party/libpng'
p419
sbag289
(g402
g291
Ntp420
Rp421
(dp422
g406
I01
sg315
S'c:/marmalade/7.3/s3e'
p423
sbasS'macros'
p424
(dp425
S'IW_USE_CALLSTACK'
p426
NsS'IW_PLATFORM_S3E'
p427
NsS'I3D_PLATFORM_S3E'
p428
NsS'IW_MKF_IWUTIL'
p429
NsS'S3E_INCLUDE_LEGACY'
p430
NsS'IW_SDK'
p431
NsS'__S3E__'
p432
NsS'IW_USE_ASSERTIONS'
p433
NsS'_CRT_SECURE_NO_DEPRECATE'
p434
NsS'IW_APP_NAME'
p435
S'"OneTap"'
p436
sS'IW_MKF_LIBJPEG'
p437
NsS'I3D_OS_S3E'
p438
NsS'IW_APP_VERSION'
p439
S'"1.0"'
p440
sS'IW_DEBUG'
p441
NsS'IW_USE_TRACING'
p442
NsS'IW_MKF_ZLIB'
p443
NsS'IW_MKF_LIBPNG'
p444
NssS'done_warnings'
p445
(dp446
sS'subprojects'
p447
(dp448
g173
S'libpng'
p449
sg171
S'iwutil'
p450
sg174
S'zlib'
p451
sg172
S'libjpeg'
p452
ssS'deployments'
p453
(dp454
S'Default'
p455
g289
(cdeployment
Deployment
p456
g291
Ntp457
Rp458
(dp459
S'got_version'
p460
I0
sS'assets'
p461
g455
sS'mkb'
p462
g293
sS'target'
p463
Nsg322
(lp464
sS'options'
p465
(dp466
S'iphone-link-lib'
p467
(lp468
sS'game-icf'
p469
NsS'winmobile-icon32'
p470
NsS'ws8-logo-image150x150'
p471
NsS'ws81-product-version'
p472
NsS'osx-ext-dll'
p473
(lp474
sS'iphone-provisioning-profile'
p475
NsS'ws8-splash-screen-image620x300'
p476
NsS'ws8-ext-capabilities'
p477
(lp478
sS'android-icon-hdpi'
p479
NsS'brew-icon-large'
p480
NsS'iphone-splash-full-orient'
p481
NsS'wp8-tile-fliptemplate-supports-large'
p482
NsS'iphone-show-status-bar'
p483
NsS'roku-requires-mkv'
p484
NsS'long-caption'
p485
NsS'android-pkgname'
p486
NsS'blackberry-permissions-read-device-identifying-information'
p487
NsS'ws81-certificate-end-date'
p488
NsS'psp-dlgcontentid'
p489
NsS'target-folder'
p490
NsS'tizen-dist1-CA-path'
p491
NsS'symbian-icon2-format'
p492
NsS'iphone-region'
p493
NsS'uiq3-icon3-mask'
p494
NsS'brew-encoding'
p495
NsS'android-x86'
p496
NsS'nds-initialcode'
p497
NsS'iphone-persistent-wifi'
p498
NsS'psp-snd0'
p499
NsS'osx-signing-identity-inst'
p500
NsS'winmobile-install-folder'
p501
NsS'android-external-res'
p502
(lp503
sS'ws8-product-version'
p504
NsS'brew-priviledges'
p505
NsS'iphone-icon-ipad-search'
p506
NsS'iphone-icon-ipad'
p507
NsS'roku-hidden'
p508
NsS'psp-titlename'
p509
NsS'symbian-icon1-mask'
p510
NsS'psp-parentallevel'
p511
NsS'splashscreen-use-all'
p512
NsS'wp8-author'
p513
NsS'symbian-disable-ecompxl'
p514
NsS'splashscreen-auto-onblack'
p515
NsS'win32-ext-dll'
p516
(lp517
sS'iphone-development-key'
p518
NsS'winmobile-icon48'
p519
NsS'android-unsigned'
p520
NsS'osx-appstore-category'
p521
NsS'version-revision'
p522
NsS'roku-icon-focus-sd'
p523
NsS'android-keystore'
p524
NsS'winmobile-png90'
p525
NsS'iphone-icon-ipad-high-res'
p526
NsS'iphone-disable-ipad'
p527
NsS'wp8-product-id'
p528
NsS'ws81-splash-screen-background'
p529
NsS'wp8-ext-capabilities'
p530
(lp531
sS'iphone-ipad-only'
p532
NsS'symbian-icon1-mask-black'
p533
NsS'iphone-bundle-localisations'
p534
NsS'winmobile-png60'
p535
NsS'blackberry-permissions-access-shared'
p536
NsS'blackberry-author'
p537
NsS'android-icon-xxxhdpi'
p538
NsS'olddeploytoolstyle'
p539
NsS'android_icon_gallery'
p540
NsS'winmobile-cab-compress'
p541
NsS'ws81-ext-managed-dll'
p542
(lp543
sS'win32-icon'
p544
NsS'symbian-key'
p545
NsS'app-icf'
p546
NsS'blackberry-storepass'
p547
NsS'wp8-tile-fliptemplate-back-title'
p548
NsS'brew-compress-loader'
p549
NsS'win32-pref-windowposy'
p550
NsS'win32-pref-windowposx'
p551
NsS'roku-requires-audiometadata'
p552
NsS'wp8-exclude-low-mem'
p553
NsS'wp8-tile-fliptemplate-title'
p554
NsS'iphone-icon-ipad-search-high-res'
p555
NsS'iphone-link-libdir'
p556
(lp557
sS'blackberry-permissions-read-geolocation'
p558
NsS'winmobile-nouninstall'
p559
NsS'tizen-signed'
p560
NsS'android-extra-application-manifest'
p561
(lp562
sS'ws8-ext-native-dll'
p563
(lp564
sS'symbian-icon2-mask'
p565
NsS'iphone-backgroundmode-audio'
p566
NsS'webos-memory'
p567
NsS'android-keypass'
p568
NsS'name'
p569
NsS'uiq3-icon2-format'
p570
NsS'roku-splash-screen-sd'
p571
NsS'auto-derbh'
p572
NsS'roku-icon-side-sd'
p573
NsS'symbian-maxheapsize'
p574
NsS'nds-publicsavedatasize'
p575
NsS'splashscreen'
p576
NsS'brew-mif'
p577
NsS'iphone-icon-settings-high-res'
p578
NsS'android-manifest'
p579
NsS'ws81-splash-screen-image620x300'
p580
NsS's3e-compression'
p581
NsS'tizen-author-password'
p582
NsS'wp8-tile-fliptemplate-back-content'
p583
NsS'symbian-icon1'
p584
NsS'symbian-icon2'
p585
NsS'android-extra-styles-file'
p586
NsS'nds-bannertitle-jp'
p587
NsS'osx-sign-for-store'
p588
NsS'symbian7-uid'
p589
NsS'wp8-tile-fliptemplate-large-back-content'
p590
NsS'nds-bannertitle-cn'
p591
NsS'iphone-distribution-key'
p592
NsS'android-icon-gallery'
p593
NsS'blackberry-keystore'
p594
NsS'iphone-nosign'
p595
NsS'caption'
p596
NsS'android-extra-manifest'
p597
(lp598
sS'android-icon-xxhdpi'
p599
NsS'version-minor'
p600
NsS'iphone-link-libdirs'
p601
(lp602
sS'iphone-icon-large'
p603
NsS'symbian-keypwd'
p604
NsS'symbian8-uid'
p605
NsS'symbian-cert-key'
p606
NsS'winmobile-ampd-part-number'
p607
NsS'arch'
p608
NsS'nds-romheadertemplate'
p609
NsS'webos-icon'
p610
NsS'psp-dlgprotectdocument'
p611
NsS'ws8-splash-screen-background'
p612
NsS'android-icon-mdpi'
p613
NsS'nds-icon'
p614
NsS'ws8-custom-manifest-fill'
p615
NsS'iphone-development-cert'
p616
NsS'blackberry-phone-icon'
p617
NsS'iphone-enable-4inch-retina'
p618
NsS'ws8-custom-manifest'
p619
NsS'version-major'
p620
NsS'wp8-genre-isgame'
p621
NsS'uiq3-uid'
p622
NsS'iphone-splash-retina-generate'
p623
NsS'tizen-hw-acceleration'
p624
NsS'iphone_bundle_localisations'
p625
NsS'tizen-dist1-key'
p626
NsS'wp8-custom-manifest'
p627
NsS'nds-bannertitle-ge'
p628
NsS'iphone-sign-for-distribution'
p629
NsS'wp8-tile-fliptemplate-medium-back-image'
p630
NsS'wp8-publisher-id'
p631
NsS'icon'
p632
NsS'wp8-exclude-wxga'
p633
NsS'uiq3-icon2-mask'
p634
NsS'iphone-splashscreen-portrait'
p635
NsS'iphone-icon-high-res'
p636
NsS'ws81-distribution-pfx-password'
p637
NsS'playbook-author'
p638
NsS'android-icon-xhdpi'
p639
NsS'linux-ext-lib'
p640
(lp641
sS'blackberry-permissions-access-internet'
p642
NsS'wp8-exclude-720p'
p643
NsS'lgtv-use-drm'
p644
NsS'symbian-platsecflags'
p645
NsS'ws8-description'
p646
NsS'blackberry-playbook-icon'
p647
NsS'copyright'
p648
NsS'version'
p649
NsS'ws81-logo-image150x150'
p650
NsS'osx-signing-identity-app'
p651
NsS'tizen-project-url'
p652
NsS'symbian-icon-svg'
p653
NsS'android-aliasname'
p654
NsS'psp-dlgmanual'
p655
NsS'brew-uid'
p656
NsS'symbian-locationsupport'
p657
NsS'ws8-ext-managed-dll'
p658
(lp659
sS'ws81-ext-sdk-ref-file'
p660
(lp661
sS'nds-bannertitle-it'
p662
NsS'ws8-ext-sdk-manifest-part'
p663
(lp664
sS'uiq3-icon1-mask'
p665
NsS'winmobile-icon16'
p666
NsS'ws8-product-name'
p667
NsS'blackberry-cskpass'
p668
NsS'winmobile-start-menu-folder'
p669
NsS'brew-clsid'
p670
NsS'roku-requires-bluetooth'
p671
NsS'ws8-ext-device-capabilities'
p672
(lp673
sS'blackberry-permissions-use-camera'
p674
NsS'iphone-prerendered-icon'
p675
NsS'iphone-appid'
p676
NsS'ws8-identity-name'
p677
NsS'tizen-dist2-CA-path'
p678
NsS'winmobile-icon64'
p679
NsS'blackberry-permissions-post-notification'
p680
NsS'winmobile-setup-dll'
p681
NsS'android-external-jars'
p682
(lp683
sS'symbian9-uid'
p684
NsS'iphone-icon-ipad-ios7'
p685
NsS'winmobile-trace-file'
p686
NsS'roku-splash-color'
p687
NsS'psp-appversion'
p688
NsS'ws8-publisher-id'
p689
NsS'android-supports-gl-texture'
p690
(lp691
sS'winmobile-png45'
p692
NsS'android-storepass'
p693
NsS'roku-icon-focus-hd'
p694
NsS'android-custom-activity'
p695
NsS'psp-discversion'
p696
NsS'psp-copyright'
p697
NsS'embed-icf'
p698
NsS'tizen-manifest'
p699
NsS'osx-icon'
p700
NsS'webos-appinfo'
p701
NsS'psp-dlghealthwarning'
p702
NsS'webos-appid'
p703
NsS'roku-icon-side-hd'
p704
NsS'iphone-icon-ipad-search-high-res-ios7'
p705
NsS'ws81-ext-sdk-manifest-part'
p706
(lp707
sS'loader_name_prefix'
p708
NsS'nds-titlename'
p709
NsS'ws81-logo-image50x50'
p710
NsS'osx-entitlements-plist'
p711
NsS'psp-dlgicon0'
p712
NsS'ws81-ext-device-capabilities'
p713
(lp714
sS'psp-discid'
p715
NsS'tizen-dist2-password'
p716
NsS'ws8-ext-sdk-ref'
p717
(lp718
sS'iphone-extra-string'
p719
(lp720
sS'version-string'
p721
NsS'iphone-icon-high-res-ios7'
p722
NsS'blackberry-permissions-record-audio'
p723
NsS'ws8-certificate-end-date'
p724
NsS'tizen-so'
p725
(lp726
sS'wp8-tile-fliptemplate-small-image'
p727
NsS'pkguid-as-uid'
p728
NsS'iphone-signing-identity'
p729
NsS'roku-persist-quota'
p730
NsS'nds-bannertitle-fr'
p731
NsS'ws8-distribution-pfx'
p732
NsS'ws8-publisher-display-name'
p733
NsS'brew-icon-small'
p734
NsS'psp-dlgpic2'
p735
NsS'psp-dlgpic0'
p736
NsS'psp-pic0'
p737
NsS'psp-pic1'
p738
NsS'psp-icon0'
p739
NsS'psp-icon1'
p740
NsS'ws81-identity-name'
p741
NsS'winmobile-icon'
p742
NsS'iphone-no-splash'
p743
NsS'iphone-splash'
p744
NsS'iphone-app-fonts'
p745
NsS'wp8-ext-native-dll'
p746
(lp747
sS'ws81-distribution-cer'
p748
NsS'uiq3-icon2'
p749
NsS'uiq3-icon3'
p750
NsS'uiq3-icon1'
p751
NsS'uiq3-icon1-format'
p752
NsS'ws8-logo-image50x50'
p753
NsS'symbian-icon2-mask-black'
p754
NsS'symbian-run-on-install'
p755
NsS'ws81-publisher-display-name'
p756
NsS'ws81-custom-manifest-fill'
p757
NsS'symbian-soundrecordsupport'
p758
NsS'nds-bannertitle-sp'
p759
NsS'psp-producer'
p760
NsS'iphone-apple-wwdr-cert'
p761
NsS'android-icon-nonstandard'
p762
NsS'win32-pref-processtitle'
p763
NsS'nds-bannertitle-hn'
p764
NsS'tizen-dist2-key'
p765
NsS'brew-depends'
p766
NsS'ws81-custom-manifest'
p767
NsS'iphone-icon-ipad-search-ios7'
p768
NsS'brew-icon-medium'
p769
NsS'iphone-bundle-url-name'
p770
NsS'wp8-tile-fliptemplate-large-front-image'
p771
NsS'tizen-dist2-CA-root-path'
p772
NsS'ws81-description'
p773
NsS'uiq3-icon3-format'
p774
NsS'ws81-logo-image30x30'
p775
NsS'iphone-signing-host'
p776
NsS'tizen-icon'
p777
NsS'osx-info-plist'
p778
NsS'symbian-icon1-format'
p779
NsS'ws81-distribution-pfx'
p780
NsS'blackberry-authorid'
p781
NsS'ws81-publisher-id'
p782
NsS'ws81-ext-sdk-ref'
p783
(lp784
sS'wp8-description'
p785
NsS'iphone-link-opts'
p786
(lp787
sS'roku-splash-min-time'
p788
NsS'wp8-tile-fliptemplate-medium-front-image'
p789
NsS'provider'
p790
NsS'playbook-keystore'
p791
NsS'tizen-appid'
p792
NsS'tizen-author-key'
p793
NsS'symbian-osexecsupport'
p794
NsS'android-install-location'
p795
NsS'nds-privatesavedatasize'
p796
NsS'playbook-storepass'
p797
NsS'android-icon-ldpi'
p798
NsS'manufacturer'
p799
NsS'itunes-artwork'
p800
NsS'iphone-extra-sections'
p801
NsS'ws81-product-name'
p802
NsS'ws81-ext-native-dll'
p803
(lp804
sS'iphone-info-plist'
p805
NsS'ws8-distribution-pfx-password'
p806
NsS'ws8-logo-image30x30'
p807
NsS'wp8-ext-managed-dll'
p808
(lp809
sS'iphone-splashscreen-landscape'
p810
NsS'nds-makercode'
p811
NsS'priv-sign-key'
p812
NsS'networking'
p813
NsS'android-icon'
p814
NsS'iphone-icon-settings'
p815
NsS'iphone-distribution-cert'
p816
NsS'android_extra_strings'
p817
NsS'nds-bannertitle-en'
p818
NsS'playbook-cskpass'
p819
NsS'android-so'
p820
(lp821
sS'wp8-higher-mem'
p822
NsS'roku-splash-screen-hd'
p823
NsS'iphone-bundle-url-schemes'
p824
NsS'roku-screensaver-private'
p825
NsS'osx-extra-res'
p826
(lp827
sS'playbook-icon'
p828
NsS'uid'
p829
NsS'playbook-authorid'
p830
NsS'win32-pref-windowtitle'
p831
NsS'tizen-dist1-password'
p832
NsS'roku-screensaver-title'
p833
NsS'osx-minimum-osx-version'
p834
NsS'symbian-cert'
p835
NsS'iphone-icon'
p836
NsS'ws81-ext-capabilities'
p837
(lp838
sS'ws8-distribution-cer'
p839
NsS'playbook-access-shared'
p840
NsS'iphone-icon-ipad-high-res-ios7'
p841
NsS'iphone-link-libs'
p842
(lp843
sS'wp8-exclude-wvga'
p844
NsS'assets'
p845
NsS'wp8-tile-fliptemplate-large-back-image'
p846
NsS'wp8-custom-manifest-fill'
p847
NsS'pub-sign-key'
p848
NsS'android-extra-strings'
p849
NsS'tizen-author-CA-path'
p850
Nssg315
g455
sbssS'platform'
p851
S'S3E'
p852
sg62
S'1.0'
p853
sS'arcade_platform'
p854
g4
sS'extensions'
p855
(dp856
sS'source_groups_tree'
p857
(dp858
S'(libpng)'
p859
(dp860
S'h'
p861
(dp862
S'c:/marmalade/7.3/modules/third_party/libpng/h/pngconf.h'
p863
(lp864
I1
a(dp865
asS'c:/marmalade/7.3/modules/third_party/libpng/h/png.h'
p866
(lp867
I1
ag865
assS'c:/marmalade/7.3/modules/third_party/libpng/libpng.mkf'
p868
(lp869
I1
a(dp870
assS'(libjpeg)'
p871
(dp872
g861
(dp873
S'c:/marmalade/7.3/modules/third_party/libjpeg/h/jpeglib.h'
p874
(lp875
I1
a(dp876
asS'c:/marmalade/7.3/modules/third_party/libjpeg/h/jmemsys.h'
p877
(lp878
I1
ag876
asS'c:/marmalade/7.3/modules/third_party/libjpeg/h/jerror.h'
p879
(lp880
I1
ag876
asS'c:/marmalade/7.3/modules/third_party/libjpeg/h/cdjpeg.h'
p881
(lp882
I1
ag876
asS'c:/marmalade/7.3/modules/third_party/libjpeg/h/transupp.h'
p883
(lp884
I1
ag876
asS'c:/marmalade/7.3/modules/third_party/libjpeg/h/jconfig.h'
p885
(lp886
I1
ag876
asS'c:/marmalade/7.3/modules/third_party/libjpeg/h/jdhuff.h'
p887
(lp888
I1
ag876
asS'c:/marmalade/7.3/modules/third_party/libjpeg/h/jdct.h'
p889
(lp890
I1
ag876
asS'c:/marmalade/7.3/modules/third_party/libjpeg/h/cderror.h'
p891
(lp892
I1
ag876
asS'c:/marmalade/7.3/modules/third_party/libjpeg/h/jmorecfg.h'
p893
(lp894
I1
ag876
asS'c:/marmalade/7.3/modules/third_party/libjpeg/h/jchuff.h'
p895
(lp896
I1
ag876
asS'c:/marmalade/7.3/modules/third_party/libjpeg/h/jinclude.h'
p897
(lp898
I1
ag876
asS'c:/marmalade/7.3/modules/third_party/libjpeg/h/jpegint.h'
p899
(lp900
I1
ag876
asS'c:/marmalade/7.3/modules/third_party/libjpeg/h/jversion.h'
p901
(lp902
I1
ag876
assS'c:/marmalade/7.3/modules/third_party/libjpeg/libjpeg.mkf'
p903
(lp904
I1
a(dp905
assS'source'
p906
(dp907
S'c:/Users/Randy/Documents/MarmaladeGames/OneTap/Source/OneTap.cpp'
p908
(lp909
I1
a(dp910
assS'sourceMenu'
p911
(dp912
S'c:/Users/Randy/Documents/MarmaladeGames/OneTap/Source/MainMenu.cpp'
p913
(lp914
I1
ag910
asS'c:/Users/Randy/Documents/MarmaladeGames/OneTap/Source/MainMenu.h'
p915
(lp916
I1
ag910
assS"'Marmalade Studio'"
p917
(dp918
S'iwutil'
p919
(dp920
S'c:/marmalade/7.3/modules/iwutil/h/IwVariableBitField.h'
p921
(lp922
I1
a(dp923
asS'c:/marmalade/7.3/modules/iwutil/h/IwManagedList.h'
p924
(lp925
I1
ag923
asS'c:/marmalade/7.3/modules/iwutil/docs/iwutil.config.txt'
p926
(lp927
I1
ag923
asS'c:/marmalade/7.3/modules/iwutil/h/IwUtilInitTerm.h'
p928
(lp929
I1
ag923
asS'c:/marmalade/7.3/modules/iwutil/h/IwUncopyable.h'
p930
(lp931
I1
ag923
asS'c:/marmalade/7.3/modules/iwutil/h/IwAllocator.h'
p932
(lp933
I1
ag923
asS'c:/marmalade/7.3/modules/iwutil/h/IwUTF8.h'
p934
(lp935
I1
ag923
asS'c:/marmalade/7.3/modules/iwutil/h/IwHashString.h'
p936
(lp937
I1
ag923
asS'c:/marmalade/7.3/modules/iwutil/h/IwMath.h'
p938
(lp939
I1
ag923
asS'c:/marmalade/7.3/modules/iwutil/h/IwTextParser.h'
p940
(lp941
I1
ag923
asS'c:/marmalade/7.3/modules/iwutil/h/IwImageHelper.h'
p942
(lp943
I1
ag923
asS'c:/marmalade/7.3/modules/iwutil/h/IwString.h'
p944
(lp945
I1
ag923
asS'c:/marmalade/7.3/modules/iwutil/h/IwOptimiseSpeed.h'
p946
(lp947
I1
ag923
asS'c:/marmalade/7.3/modules/iwutil/h/IwRuntime.h'
p948
(lp949
I1
ag923
asS'c:/marmalade/7.3/modules/iwutil/h/IwOptimiseThumb.h'
p950
(lp951
I1
ag923
asS'c:/marmalade/7.3/modules/iwutil/h/IwAutoFile.h'
p952
(lp953
I1
ag923
asS'c:/marmalade/7.3/modules/iwutil/h/IwOptimiseARM.h'
p954
(lp955
I1
ag923
asS'c:/marmalade/7.3/modules/iwutil/h/IwPath.h'
p956
(lp957
I1
ag923
asS'c:/marmalade/7.3/modules/iwutil/h/IwFile.h'
p958
(lp959
I1
ag923
asS'c:/marmalade/7.3/modules/iwutil/h/IwTextParseable.h'
p960
(lp961
I1
ag923
asS'c:/marmalade/7.3/modules/iwutil/h/IwList.h'
p962
(lp963
I1
ag923
asS'c:/marmalade/7.3/modules/iwutil/h/IwMenu.h'
p964
(lp965
I1
ag923
asS'c:/marmalade/7.3/modules/iwutil/h/IwImage.h'
p966
(lp967
I1
ag923
asS'c:/marmalade/7.3/modules/iwutil/h/IwProfileMenu.h'
p968
(lp969
I1
ag923
asS'c:/marmalade/7.3/modules/iwutil/h/IwDivTable.h'
p970
(lp971
I1
ag923
asS'c:/marmalade/7.3/modules/iwutil/h/IwBuffer.h'
p972
(lp973
I1
ag923
asS'c:/marmalade/7.3/modules/iwutil/h/IwArray.h'
p974
(lp975
I1
ag923
asS'c:/marmalade/7.3/modules/iwutil/iwutil.mkf'
p976
(lp977
I1
a(dp978
asS'c:/marmalade/7.3/modules/iwutil/h/IwMemBucket.h'
p979
(lp980
I1
ag923
asS'c:/marmalade/7.3/modules/iwutil/h/IwDivide.h'
p981
(lp982
I1
ag923
asS'c:/marmalade/7.3/modules/iwutil/h/IwCopyingPtr.h'
p983
(lp984
I1
ag923
asS'c:/marmalade/7.3/modules/iwutil/h/IwUtil.h'
p985
(lp986
I1
ag923
asS'c:/marmalade/7.3/modules/iwutil/h/IwFibre.h'
p987
(lp988
I1
ag923
asS'c:/marmalade/7.3/modules/iwutil/h/IwSerialise.h'
p989
(lp990
I1
ag923
asS'c:/marmalade/7.3/modules/iwutil/h/IwSingleton.h'
p991
(lp992
I1
ag923
asS'c:/marmalade/7.3/modules/iwutil/h/IwEvent.h'
p993
(lp994
I1
ag923
asS'c:/marmalade/7.3/modules/iwutil/h/IwResource.h'
p995
(lp996
I1
ag923
asS'c:/marmalade/7.3/modules/iwutil/h/IwTypes.h'
p997
(lp998
I1
ag923
asS'c:/marmalade/7.3/modules/iwutil/h/IwMemManagerDL.h'
p999
(lp1000
I1
ag923
asS'c:/marmalade/7.3/modules/iwutil/h/IwKeymap.h'
p1001
(lp1002
I1
ag923
asS'c:/marmalade/7.3/modules/iwutil/h/IwCore.h'
p1003
(lp1004
I1
ag923
asS'c:/marmalade/7.3/modules/iwutil/h/IwChar.h'
p1005
(lp1006
I1
ag923
asS'c:/marmalade/7.3/modules/iwutil/h/IwManaged.h'
p1007
(lp1008
I1
ag923
asS'c:/marmalade/7.3/modules/iwutil/h/IwMemory.h'
p1009
(lp1010
I1
ag923
asS'c:/marmalade/7.3/modules/iwutil/h/IwMemBucketHelpers.h'
p1011
(lp1012
I1
ag923
asS'c:/marmalade/7.3/modules/iwutil/h/IwTextParserITX.h'
p1013
(lp1014
I1
ag923
asS'c:/marmalade/7.3/modules/iwutil/h/IwOptimiseSize.h'
p1015
(lp1016
I1
ag923
asS'c:/marmalade/7.3/modules/iwutil/h/IwRandom.h'
p1017
(lp1018
I1
ag923
asS'c:/marmalade/7.3/modules/iwutil/h/IwDebug.h'
p1019
(lp1020
I1
ag923
asS'c:/marmalade/7.3/modules/iwutil/h/IwClassFactory.h'
p1021
(lp1022
I1
ag923
asssS'(zlib)'
p1023
(dp1024
S'c:/marmalade/7.3/modules/third_party/zlib/zlib.mkf'
p1025
(lp1026
I1
a(dp1027
asg861
(dp1028
S'c:/marmalade/7.3/modules/third_party/zlib/h/zlib.h'
p1029
(lp1030
I1
a(dp1031
asS'c:/marmalade/7.3/modules/third_party/zlib/h/zconf.h'
p1032
(lp1033
I1
ag1031
assssS'files'
p1034
(dp1035
S'hash_map'
p1036
g289
(cmkb_main
File
p1037
g291
Ntp1038
Rp1039
(dp1040
S'flags'
p1041
(dp1042
sS'group'
p1043
(lp1044
S"'Marmalade System (S3E)'"
p1045
aS'stdc headers'
p1046
aS'c++'
p1047
asg315
S'c:/marmalade/7.3/s3e/h/std/c++/hash_map'
p1048
sbsS'IwArray.h'
p1049
g289
(g1037
g291
Ntp1050
Rp1051
(dp1052
g1041
g923
sg1043
(lp1053
g917
ag919
asg315
g974
sbsS'iterator'
p1054
g289
(g1037
g291
Ntp1055
Rp1056
(dp1057
g1041
g1042
sg1043
g1044
sg315
S'c:/marmalade/7.3/s3e/h/std/c++/iterator'
p1058
sbsS'IwUTF8.h'
p1059
g289
(g1037
g291
Ntp1060
Rp1061
(dp1062
g1041
g923
sg1043
g1053
sg315
g934
sbsS'math_rvct.h'
p1063
g289
(g1037
g291
Ntp1064
Rp1065
(dp1066
g1041
g1042
sg1043
(lp1067
g1045
aS'stdc headers'
p1068
asg315
S'c:/marmalade/7.3/s3e/h/std/math_rvct.h'
p1069
sbsS'pthread_alloc'
p1070
g289
(g1037
g291
Ntp1071
Rp1072
(dp1073
g1041
g1042
sg1043
g1044
sg315
S'c:/marmalade/7.3/s3e/h/std/c++/pthread_alloc'
p1074
sbsS'ctype.h'
p1075
g289
(g1037
g291
Ntp1076
Rp1077
(dp1078
g1041
g1042
sg1043
g1067
sg315
S'c:/marmalade/7.3/s3e/h/std/ctype.h'
p1079
sbsS'ctime'
p1080
g289
(g1037
g291
Ntp1081
Rp1082
(dp1083
g1041
g1042
sg1043
g1044
sg315
S'c:/marmalade/7.3/s3e/h/std/c++/ctime'
p1084
sbsS's3e.h'
p1085
g289
(g1037
g291
Ntp1086
Rp1087
(dp1088
g1041
g1042
sg1043
(lp1089
g1045
asg315
S'c:/marmalade/7.3/s3e/h/s3e.h'
p1090
sbsS'errno.h'
p1091
g289
(g1037
g291
Ntp1092
Rp1093
(dp1094
g1041
g1042
sg1043
g1067
sg315
S'c:/marmalade/7.3/s3e/h/std/errno.h'
p1095
sbsS'IwUtil.h'
p1096
g289
(g1037
g291
Ntp1097
Rp1098
(dp1099
g1041
g923
sg1043
g1053
sg315
g985
sbsS'IwSingleton.h'
p1100
g289
(g1037
g291
Ntp1101
Rp1102
(dp1103
g1041
g923
sg1043
g1053
sg315
g991
sbsS'dirent.h'
p1104
g289
(g1037
g291
Ntp1105
Rp1106
(dp1107
g1041
g1042
sg1043
g1067
sg315
S'c:/marmalade/7.3/s3e/h/std/dirent.h'
p1108
sbsS'IwCore.h'
p1109
g289
(g1037
g291
Ntp1110
Rp1111
(dp1112
g1041
g923
sg1043
g1053
sg315
g1003
sbsS'dlfcn.h'
p1113
g289
(g1037
g291
Ntp1114
Rp1115
(dp1116
g1041
g1042
sg1043
g1067
sg315
S'c:/marmalade/7.3/s3e/h/std/dlfcn.h'
p1117
sbsS'fstream.h'
p1118
g289
(g1037
g291
Ntp1119
Rp1120
(dp1121
g1041
g1042
sg1043
g1044
sg315
S'c:/marmalade/7.3/s3e/h/std/c++/fstream.h'
p1122
sbsS'cfloat'
p1123
g289
(g1037
g291
Ntp1124
Rp1125
(dp1126
g1041
g1042
sg1043
g1044
sg315
S'c:/marmalade/7.3/s3e/h/std/c++/cfloat'
p1127
sbsS'IwAllocator.h'
p1128
g289
(g1037
g291
Ntp1129
Rp1130
(dp1131
g1041
g923
sg1043
g1053
sg315
g932
sbsS'stdio_streambuf'
p1132
g289
(g1037
g291
Ntp1133
Rp1134
(dp1135
g1041
g1042
sg1043
g1044
sg315
S'c:/marmalade/7.3/s3e/h/std/c++/stdio_streambuf'
p1136
sbsS'MainMenu.cpp'
p1137
g289
(g1037
g291
Ntp1138
Rp1139
(dp1140
g1041
g910
sg1043
(lp1141
g911
asg315
g913
sbsS'wctype.h'
p1142
g289
(g1037
g291
Ntp1143
Rp1144
(dp1145
g1041
g1042
sg1043
g1067
sg315
S'c:/marmalade/7.3/s3e/h/std/wctype.h'
p1146
sbsS'IwPath.h'
p1147
g289
(g1037
g291
Ntp1148
Rp1149
(dp1150
g1041
g923
sg1043
g1053
sg315
g956
sbsS'sched.h'
p1151
g289
(g1037
g291
Ntp1152
Rp1153
(dp1154
g1041
g1042
sg1043
g1067
sg315
S'c:/marmalade/7.3/s3e/h/std/sched.h'
p1155
sbsS'valarray'
p1156
g289
(g1037
g291
Ntp1157
Rp1158
(dp1159
g1041
g1042
sg1043
g1044
sg315
S'c:/marmalade/7.3/s3e/h/std/c++/valarray'
p1160
sbsS'cassert'
p1161
g289
(g1037
g291
Ntp1162
Rp1163
(dp1164
g1041
g1042
sg1043
g1044
sg315
S'c:/marmalade/7.3/s3e/h/std/c++/cassert'
p1165
sbsS'grp.h'
p1166
g289
(g1037
g291
Ntp1167
Rp1168
(dp1169
g1041
g1042
sg1043
g1067
sg315
S'c:/marmalade/7.3/s3e/h/std/grp.h'
p1170
sbsS'list'
p1171
g289
(g1037
g291
Ntp1172
Rp1173
(dp1174
g1041
g1042
sg1043
g1044
sg315
S'c:/marmalade/7.3/s3e/h/std/c++/list'
p1175
sbsS's3eSecureStorage.h'
p1176
g289
(g1037
g291
Ntp1177
Rp1178
(dp1179
g1041
g1042
sg1043
g1089
sg315
S'c:/marmalade/7.3/s3e/h/s3eSecureStorage.h'
p1180
sbsS'poll.h'
p1181
g289
(g1037
g291
Ntp1182
Rp1183
(dp1184
g1041
g1042
sg1043
g1067
sg315
S'c:/marmalade/7.3/s3e/h/std/poll.h'
p1185
sbsS'jpeglib.h'
p1186
g289
(g1037
g291
Ntp1187
Rp1188
(dp1189
g1041
g876
sg1043
(lp1190
g871
ag861
asg315
g874
sbsS's3eAccelerometer.h'
p1191
g289
(g1037
g291
Ntp1192
Rp1193
(dp1194
g1041
g1042
sg1043
g1089
sg315
S'c:/marmalade/7.3/s3e/h/s3eAccelerometer.h'
p1195
sbsS'iostream.h'
p1196
g289
(g1037
g291
Ntp1197
Rp1198
(dp1199
g1041
g1042
sg1043
g1044
sg315
S'c:/marmalade/7.3/s3e/h/std/c++/iostream.h'
p1200
sbsS's3eOSReadString.h'
p1201
g289
(g1037
g291
Ntp1202
Rp1203
(dp1204
g1041
g1042
sg1043
(lp1205
g1045
aS'Extensions'
p1206
asg315
S'c:/marmalade/7.3/s3e/h/ext/s3eOSReadString.h'
p1207
sbsS'cstddef'
p1208
g289
(g1037
g291
Ntp1209
Rp1210
(dp1211
g1041
g1042
sg1043
g1044
sg315
S'c:/marmalade/7.3/s3e/h/std/c++/cstddef'
p1212
sbsS'iosfwd'
p1213
g289
(g1037
g291
Ntp1214
Rp1215
(dp1216
g1041
g1042
sg1043
g1044
sg315
S'c:/marmalade/7.3/s3e/h/std/c++/iosfwd'
p1217
sbsS'string'
p1218
g289
(g1037
g291
Ntp1219
Rp1220
(dp1221
g1041
g1042
sg1043
g1044
sg315
S'c:/marmalade/7.3/s3e/h/std/c++/string'
p1222
sbsS'IwMemory.h'
p1223
g289
(g1037
g291
Ntp1224
Rp1225
(dp1226
g1041
g923
sg1043
g1053
sg315
g1009
sbsS'mman.h'
p1227
g289
(g1037
g291
Ntp1228
Rp1229
(dp1230
g1041
g1042
sg1043
(lp1231
g1045
aS'stdc headers'
p1232
aS'sys'
p1233
asg315
S'c:/marmalade/7.3/s3e/h/std/sys/mman.h'
p1234
sbsS'IwRandom.h'
p1235
g289
(g1037
g291
Ntp1236
Rp1237
(dp1238
g1041
g923
sg1043
g1053
sg315
g1017
sbsS'libgen.h'
p1239
g289
(g1037
g291
Ntp1240
Rp1241
(dp1242
g1041
g1042
sg1043
g1067
sg315
S'c:/marmalade/7.3/s3e/h/std/libgen.h'
p1243
sbsS'utsname.h'
p1244
g289
(g1037
g291
Ntp1245
Rp1246
(dp1247
g1041
g1042
sg1043
g1231
sg315
S'c:/marmalade/7.3/s3e/h/std/sys/utsname.h'
p1248
sbsS'fstream'
p1249
g289
(g1037
g291
Ntp1250
Rp1251
(dp1252
g1041
g1042
sg1043
g1044
sg315
S'c:/marmalade/7.3/s3e/h/std/c++/fstream'
p1253
sbsS'wait.h'
p1254
g289
(g1037
g291
Ntp1255
Rp1256
(dp1257
g1041
g1042
sg1043
g1231
sg315
S'c:/marmalade/7.3/s3e/h/std/sys/wait.h'
p1258
sbsS'IwFile.h'
p1259
g289
(g1037
g291
Ntp1260
Rp1261
(dp1262
g1041
g923
sg1043
g1053
sg315
g958
sbsS'IwTextParseable.h'
p1263
g289
(g1037
g291
Ntp1264
Rp1265
(dp1266
g1041
g923
sg1043
g1053
sg315
g960
sbsS'istream.h'
p1267
g289
(g1037
g291
Ntp1268
Rp1269
(dp1270
g1041
g1042
sg1043
g1044
sg315
S'c:/marmalade/7.3/s3e/h/std/c++/istream.h'
p1271
sbsS'type_traits.h'
p1272
g289
(g1037
g291
Ntp1273
Rp1274
(dp1275
g1041
g1042
sg1043
g1044
sg315
S'c:/marmalade/7.3/s3e/h/std/c++/type_traits.h'
p1276
sbsS'algorithm'
p1277
g289
(g1037
g291
Ntp1278
Rp1279
(dp1280
g1041
g1042
sg1043
g1044
sg315
S'c:/marmalade/7.3/s3e/h/std/c++/algorithm'
p1281
sbsS'cwchar'
p1282
g289
(g1037
g291
Ntp1283
Rp1284
(dp1285
g1041
g1042
sg1043
g1044
sg315
S'c:/marmalade/7.3/s3e/h/std/c++/cwchar'
p1286
sbsS'stdint.h'
p1287
g289
(g1037
g291
Ntp1288
Rp1289
(dp1290
g1041
g1042
sg1043
g1067
sg315
S'c:/marmalade/7.3/s3e/h/std/stdint.h'
p1291
sbsS'semaphore.h'
p1292
g289
(g1037
g291
Ntp1293
Rp1294
(dp1295
g1041
g1042
sg1043
g1067
sg315
S'c:/marmalade/7.3/s3e/h/std/semaphore.h'
p1296
sbsS'iomanip'
p1297
g289
(g1037
g291
Ntp1298
Rp1299
(dp1300
g1041
g1042
sg1043
g1044
sg315
S'c:/marmalade/7.3/s3e/h/std/c++/iomanip'
p1301
sbsS'gl2.h'
p1302
g289
(g1037
g291
Ntp1303
Rp1304
(dp1305
g1041
g1042
sg1043
(lp1306
g1045
aS'GL'
p1307
aS'GLES 2.0'
p1308
asg315
S'c:/marmalade/7.3/s3e/h/GLES2/gl2.h'
p1309
sbsS'assert.h'
p1310
g289
(g1037
g291
Ntp1311
Rp1312
(dp1313
g1041
g1042
sg1043
g1067
sg315
S'c:/marmalade/7.3/s3e/h/std/assert.h'
p1314
sbsS'param.h'
p1315
g289
(g1037
g291
Ntp1316
Rp1317
(dp1318
g1041
g1042
sg1043
g1231
sg315
S'c:/marmalade/7.3/s3e/h/std/sys/param.h'
p1319
sbsS'dir.h'
p1320
g289
(g1037
g291
Ntp1321
Rp1322
(dp1323
g1041
g1042
sg1043
g1231
sg315
S'c:/marmalade/7.3/s3e/h/std/sys/dir.h'
p1324
sbsS'IwDivide.h'
p1325
g289
(g1037
g291
Ntp1326
Rp1327
(dp1328
g1041
g923
sg1043
g1053
sg315
g981
sbsS'locale.h'
p1329
g289
(g1037
g291
Ntp1330
Rp1331
(dp1332
g1041
g1042
sg1043
g1067
sg315
S'c:/marmalade/7.3/s3e/h/std/locale.h'
p1333
sbsS'IwManagedList.h'
p1334
g289
(g1037
g291
Ntp1335
Rp1336
(dp1337
g1041
g923
sg1043
g1053
sg315
g924
sbsS'vector'
p1338
g289
(g1037
g291
Ntp1339
Rp1340
(dp1341
g1041
g1042
sg1043
g1044
sg315
S'c:/marmalade/7.3/s3e/h/std/c++/vector'
p1342
sbsS'ostream'
p1343
g289
(g1037
g291
Ntp1344
Rp1345
(dp1346
g1041
g1042
sg1043
g1044
sg315
S'c:/marmalade/7.3/s3e/h/std/c++/ostream'
p1347
sbsS'termios.h'
p1348
g289
(g1037
g291
Ntp1349
Rp1350
(dp1351
g1041
g1042
sg1043
g1067
sg315
S'c:/marmalade/7.3/s3e/h/std/termios.h'
p1352
sbsS'cwctype'
p1353
g289
(g1037
g291
Ntp1354
Rp1355
(dp1356
g1041
g1042
sg1043
g1044
sg315
S'c:/marmalade/7.3/s3e/h/std/c++/cwctype'
p1357
sbsS's3ePointer.h'
p1358
g289
(g1037
g291
Ntp1359
Rp1360
(dp1361
g1041
g1042
sg1043
g1089
sg315
S'c:/marmalade/7.3/s3e/h/s3ePointer.h'
p1362
sbsS'IwManaged.h'
p1363
g289
(g1037
g291
Ntp1364
Rp1365
(dp1366
g1041
g923
sg1043
g1053
sg315
g1007
sbsS'stdiostream.h'
p1367
g289
(g1037
g291
Ntp1368
Rp1369
(dp1370
g1041
g1042
sg1043
g1044
sg315
S'c:/marmalade/7.3/s3e/h/std/c++/stdiostream.h'
p1371
sbsS'sstream'
p1372
g289
(g1037
g291
Ntp1373
Rp1374
(dp1375
g1041
g1042
sg1043
g1044
sg315
S'c:/marmalade/7.3/s3e/h/std/c++/sstream'
p1376
sbsS'alloca.h'
p1377
g289
(g1037
g291
Ntp1378
Rp1379
(dp1380
g1041
g1042
sg1043
g1067
sg315
S'c:/marmalade/7.3/s3e/h/std/alloca.h'
p1381
sbsS'jerror.h'
p1382
g289
(g1037
g291
Ntp1383
Rp1384
(dp1385
g1041
g876
sg1043
g1190
sg315
g879
sbsS's3eCompass.h'
p1386
g289
(g1037
g291
Ntp1387
Rp1388
(dp1389
g1041
g1042
sg1043
g1089
sg315
S'c:/marmalade/7.3/s3e/h/s3eCompass.h'
p1390
sbsS'prctl.h'
p1391
g289
(g1037
g291
Ntp1392
Rp1393
(dp1394
g1041
g1042
sg1043
g1231
sg315
S'c:/marmalade/7.3/s3e/h/std/sys/prctl.h'
p1395
sbsS'netdb.h'
p1396
g289
(g1037
g291
Ntp1397
Rp1398
(dp1399
g1041
g1042
sg1043
g1067
sg315
S'c:/marmalade/7.3/s3e/h/std/netdb.h'
p1400
sbsS's3eOSExec.h'
p1401
g289
(g1037
g291
Ntp1402
Rp1403
(dp1404
g1041
g1042
sg1043
g1205
sg315
S'c:/marmalade/7.3/s3e/h/ext/s3eOSExec.h'
p1405
sbsS'locale'
p1406
g289
(g1037
g291
Ntp1407
Rp1408
(dp1409
g1041
g1042
sg1043
g1044
sg315
S'c:/marmalade/7.3/s3e/h/std/c++/locale'
p1410
sbsS'zconf.h'
p1411
g289
(g1037
g291
Ntp1412
Rp1413
(dp1414
g1041
g1031
sg1043
(lp1415
g1023
ag861
asg315
g1032
sbsS'cderror.h'
p1416
g289
(g1037
g291
Ntp1417
Rp1418
(dp1419
g1041
g876
sg1043
g1190
sg315
g891
sbsS'climits'
p1420
g289
(g1037
g291
Ntp1421
Rp1422
(dp1423
g1041
g1042
sg1043
g1044
sg315
S'c:/marmalade/7.3/s3e/h/std/c++/climits'
p1424
sbsS's3e.config.txt'
p1425
g289
(g1037
g291
Ntp1426
Rp1427
(dp1428
g1041
g1042
sg1043
g1089
sg315
S'c:/marmalade/7.3/s3e/s3e.config.txt'
p1429
sbsS'numeric'
p1430
g289
(g1037
g291
Ntp1431
Rp1432
(dp1433
g1041
g1042
sg1043
g1044
sg315
S'c:/marmalade/7.3/s3e/h/std/c++/numeric'
p1434
sbsS'utime.h'
p1435
g289
(g1037
g291
Ntp1436
Rp1437
(dp1438
g1041
g1042
sg1043
g1067
sg315
S'c:/marmalade/7.3/s3e/h/std/utime.h'
p1439
sbsS'cdjpeg.h'
p1440
g289
(g1037
g291
Ntp1441
Rp1442
(dp1443
g1041
g876
sg1043
g1190
sg315
g881
sbsS'cstdio'
p1444
g289
(g1037
g291
Ntp1445
Rp1446
(dp1447
g1041
g1042
sg1043
g1044
sg315
S'c:/marmalade/7.3/s3e/h/std/c++/cstdio'
p1448
sbsS'stdexcept'
p1449
g289
(g1037
g291
Ntp1450
Rp1451
(dp1452
g1041
g1042
sg1043
g1044
sg315
S'c:/marmalade/7.3/s3e/h/std/c++/stdexcept'
p1453
sbsS's3eVibra.h'
p1454
g289
(g1037
g291
Ntp1455
Rp1456
(dp1457
g1041
g1042
sg1043
g1089
sg315
S'c:/marmalade/7.3/s3e/h/s3eVibra.h'
p1458
sbsS'jversion.h'
p1459
g289
(g1037
g291
Ntp1460
Rp1461
(dp1462
g1041
g876
sg1043
g1190
sg315
g901
sbsS'fnmatch.h'
p1463
g289
(g1037
g291
Ntp1464
Rp1465
(dp1466
g1041
g1042
sg1043
g1067
sg315
S'c:/marmalade/7.3/s3e/h/std/fnmatch.h'
p1467
sbsS'jdhuff.h'
p1468
g289
(g1037
g291
Ntp1469
Rp1470
(dp1471
g1041
g876
sg1043
g1190
sg315
g887
sbsS'stack'
p1472
g289
(g1037
g291
Ntp1473
Rp1474
(dp1475
g1041
g1042
sg1043
g1044
sg315
S'c:/marmalade/7.3/s3e/h/std/c++/stack'
p1476
sbsS'sendfile.h'
p1477
g289
(g1037
g291
Ntp1478
Rp1479
(dp1480
g1041
g1042
sg1043
g1231
sg315
S'c:/marmalade/7.3/s3e/h/std/sys/sendfile.h'
p1481
sbsS'strings.h'
p1482
g289
(g1037
g291
Ntp1483
Rp1484
(dp1485
g1041
g1042
sg1043
g1067
sg315
S'c:/marmalade/7.3/s3e/h/std/strings.h'
p1486
sbsS'inttypes.h'
p1487
g289
(g1037
g291
Ntp1488
Rp1489
(dp1490
g1041
g1042
sg1043
g1067
sg315
S'c:/marmalade/7.3/s3e/h/std/inttypes.h'
p1491
sbsS's3eAudio.h'
p1492
g289
(g1037
g291
Ntp1493
Rp1494
(dp1495
g1041
g1042
sg1043
g1089
sg315
S'c:/marmalade/7.3/s3e/h/s3eAudio.h'
p1496
sbsS'new'
p1497
g289
(g1037
g291
Ntp1498
Rp1499
(dp1500
g1041
g1042
sg1043
g1044
sg315
S'c:/marmalade/7.3/s3e/h/std/c++/new'
p1501
sbsS'IwImage.h'
p1502
g289
(g1037
g291
Ntp1503
Rp1504
(dp1505
g1041
g923
sg1043
g1053
sg315
g966
sbsS's3eImagePicker.h'
p1506
g289
(g1037
g291
Ntp1507
Rp1508
(dp1509
g1041
g1042
sg1043
g1205
sg315
S'c:/marmalade/7.3/s3e/h/ext/s3eImagePicker.h'
p1510
sbsS's3eExt.h'
p1511
g289
(g1037
g291
Ntp1512
Rp1513
(dp1514
g1041
g1042
sg1043
g1089
sg315
S'c:/marmalade/7.3/s3e/h/s3eExt.h'
p1515
sbsS'transupp.h'
p1516
g289
(g1037
g291
Ntp1517
Rp1518
(dp1519
g1041
g876
sg1043
g1190
sg315
g883
sbsS'IwMath.h'
p1520
g289
(g1037
g291
Ntp1521
Rp1522
(dp1523
g1041
g923
sg1043
g1053
sg315
g938
sbsS's3eSurface.h'
p1524
g289
(g1037
g291
Ntp1525
Rp1526
(dp1527
g1041
g1042
sg1043
g1089
sg315
S'c:/marmalade/7.3/s3e/h/s3eSurface.h'
p1528
sbsS'time.h'
p1529
g289
(g1037
g291
Ntp1530
Rp1531
(dp1532
g1041
g1042
sg1043
g1067
sg315
S'c:/marmalade/7.3/s3e/h/std/time.h'
p1533
sbsS'stdlib.h'
p1534
g289
(g1037
g291
Ntp1535
Rp1536
(dp1537
g1041
g1042
sg1043
g1067
sg315
S'c:/marmalade/7.3/s3e/h/std/stdlib.h'
p1538
sbsS'gl3ext.h'
p1539
g289
(g1037
g291
Ntp1540
Rp1541
(dp1542
g1041
g1042
sg1043
(lp1543
g1045
aS'GL'
p1544
aS'GLES 3.0'
p1545
asg315
S'c:/marmalade/7.3/s3e/h/GLES3/gl3ext.h'
p1546
sbsS'stddef.h'
p1547
g289
(g1037
g291
Ntp1548
Rp1549
(dp1550
g1041
g1042
sg1043
g1067
sg315
S'c:/marmalade/7.3/s3e/h/std/stddef.h'
p1551
sbsS's3eWindow.h'
p1552
g289
(g1037
g291
Ntp1553
Rp1554
(dp1555
g1041
g1042
sg1043
g1205
sg315
S'c:/marmalade/7.3/s3e/h/ext/s3eWindow.h'
p1556
sbsS's3eMetrics.h'
p1557
g289
(g1037
g291
Ntp1558
Rp1559
(dp1560
g1041
g1042
sg1043
g1205
sg315
S'c:/marmalade/7.3/s3e/h/ext/s3eMetrics.h'
p1561
sbsS'IwCopyingPtr.h'
p1562
g289
(g1037
g291
Ntp1563
Rp1564
(dp1565
g1041
g923
sg1043
g1053
sg315
g983
sbsS'IwBuffer.h'
p1566
g289
(g1037
g291
Ntp1567
Rp1568
(dp1569
g1041
g923
sg1043
g1053
sg315
g972
sbsS'app.config.txt'
p1570
g289
(g1037
g291
Ntp1571
Rp1572
(dp1573
g1041
(dp1574
sg1043
g4
sg315
S'c:/Users/Randy/Documents/MarmaladeGames/OneTap/data/app.config.txt'
p1575
sbsS'iostream'
p1576
g289
(g1037
g291
Ntp1577
Rp1578
(dp1579
g1041
g1042
sg1043
g1044
sg315
S'c:/marmalade/7.3/s3e/h/std/c++/iostream'
p1580
sbsS'png.h'
p1581
g289
(g1037
g291
Ntp1582
Rp1583
(dp1584
g1041
g865
sg1043
(lp1585
g859
ag861
asg315
g866
sbsS'glplatform.h'
p1586
g289
(g1037
g291
Ntp1587
Rp1588
(dp1589
g1041
g1042
sg1043
(lp1590
g1045
aS'GL'
p1591
aS'GLES 1.x'
p1592
asg315
S'c:/marmalade/7.3/s3e/h/GLES/glplatform.h'
p1593
sbsS'app.icf'
p1594
g289
(g1037
g291
Ntp1595
Rp1596
(dp1597
g1041
(dp1598
sg1043
g4
sg315
S'c:/Users/Randy/Documents/MarmaladeGames/OneTap/data/app.icf'
p1599
sbsS'ucontext.h'
p1600
g289
(g1037
g291
Ntp1601
Rp1602
(dp1603
g1041
g1042
sg1043
g1067
sg315
S'c:/marmalade/7.3/s3e/h/std/ucontext.h'
p1604
sbsS'setjmp_win32.h'
p1605
g289
(g1037
g291
Ntp1606
Rp1607
(dp1608
g1041
g1042
sg1043
g1067
sg315
S'c:/marmalade/7.3/s3e/h/std/setjmp_win32.h'
p1609
sbsS'unistd.h'
p1610
g289
(g1037
g291
Ntp1611
Rp1612
(dp1613
g1041
g1042
sg1043
g1067
sg315
S'c:/marmalade/7.3/s3e/h/std/unistd.h'
p1614
sbsS's3eGL.h'
p1615
g289
(g1037
g291
Ntp1616
Rp1617
(dp1618
g1041
g1042
sg1043
g1089
sg315
S'c:/marmalade/7.3/s3e/h/s3eGL.h'
p1619
sbsS'string.h'
p1620
g289
(g1037
g291
Ntp1621
Rp1622
(dp1623
g1041
g1042
sg1043
g1067
sg315
S'c:/marmalade/7.3/s3e/h/std/string.h'
p1624
sbsS'IwSerialise.h'
p1625
g289
(g1037
g291
Ntp1626
Rp1627
(dp1628
g1041
g923
sg1043
g1053
sg315
g989
sbsS'libjpeg.mkf'
p1629
g289
(g1037
g291
Ntp1630
Rp1631
(dp1632
g1041
g905
sg1043
(lp1633
g871
asg315
g903
sbsS'IwChar.h'
p1634
g289
(g1037
g291
Ntp1635
Rp1636
(dp1637
g1041
g923
sg1043
g1053
sg315
g1005
sbsS'streambuf.h'
p1638
g289
(g1037
g291
Ntp1639
Rp1640
(dp1641
g1041
g1042
sg1043
g1044
sg315
S'c:/marmalade/7.3/s3e/h/std/c++/streambuf.h'
p1642
sbsS'IwRuntime.h'
p1643
g289
(g1037
g291
Ntp1644
Rp1645
(dp1646
g1041
g923
sg1043
g1053
sg315
g948
sbsS'float.h'
p1647
g289
(g1037
g291
Ntp1648
Rp1649
(dp1650
g1041
g1042
sg1043
g1067
sg315
S'c:/marmalade/7.3/s3e/h/std/float.h'
p1651
sbsS'iomanip.h'
p1652
g289
(g1037
g291
Ntp1653
Rp1654
(dp1655
g1041
g1042
sg1043
g1044
sg315
S'c:/marmalade/7.3/s3e/h/std/c++/iomanip.h'
p1656
sbsS'limits'
p1657
g289
(g1037
g291
Ntp1658
Rp1659
(dp1660
g1041
g1042
sg1043
g1044
sg315
S'c:/marmalade/7.3/s3e/h/std/c++/limits'
p1661
sbsS'gl2platform.h'
p1662
g289
(g1037
g291
Ntp1663
Rp1664
(dp1665
g1041
g1042
sg1043
g1306
sg315
S'c:/marmalade/7.3/s3e/h/GLES2/gl2platform.h'
p1666
sbsS'queue'
p1667
g289
(g1037
g291
Ntp1668
Rp1669
(dp1670
g1041
g1042
sg1043
g1044
sg315
S'c:/marmalade/7.3/s3e/h/std/c++/queue'
p1671
sbsS'wchar.h'
p1672
g289
(g1037
g291
Ntp1673
Rp1674
(dp1675
g1041
g1042
sg1043
g1067
sg315
S'c:/marmalade/7.3/s3e/h/std/wchar.h'
p1676
sbsS's3eContacts.h'
p1677
g289
(g1037
g291
Ntp1678
Rp1679
(dp1680
g1041
g1042
sg1043
g1089
sg315
S'c:/marmalade/7.3/s3e/h/s3eContacts.h'
p1681
sbsS'IwKeymap.h'
p1682
g289
(g1037
g291
Ntp1683
Rp1684
(dp1685
g1041
g923
sg1043
g1053
sg315
g1001
sbsS'IwDebug.h'
p1686
g289
(g1037
g291
Ntp1687
Rp1688
(dp1689
g1041
g923
sg1043
g1053
sg315
g1019
sbsS'IwVariableBitField.h'
p1690
g289
(g1037
g291
Ntp1691
Rp1692
(dp1693
g1041
g923
sg1043
g1053
sg315
g921
sbsS's3eCameraCapture.h'
p1694
g289
(g1037
g291
Ntp1695
Rp1696
(dp1697
g1041
g1042
sg1043
g1205
sg315
S'c:/marmalade/7.3/s3e/h/ext/s3eCameraCapture.h'
p1698
sbsS'eglext.h'
p1699
g289
(g1037
g291
Ntp1700
Rp1701
(dp1702
g1041
g1042
sg1043
(lp1703
g1045
aS'GL'
p1704
aS'EGL'
p1705
asg315
S'c:/marmalade/7.3/s3e/h/EGL/eglext.h'
p1706
sbsS'time_1.h'
p1707
g289
(g1037
g291
Ntp1708
Rp1709
(dp1710
g1041
g1042
sg1043
g1231
sg315
S'c:/marmalade/7.3/s3e/h/std/sys/time.h'
p1711
sbsS'IwTextParser.h'
p1712
g289
(g1037
g291
Ntp1713
Rp1714
(dp1715
g1041
g923
sg1043
g1053
sg315
g940
sbsS'IwDivTable.h'
p1716
g289
(g1037
g291
Ntp1717
Rp1718
(dp1719
g1041
g923
sg1043
g1053
sg315
g970
sbsS's3eTimer.h'
p1720
g289
(g1037
g291
Ntp1721
Rp1722
(dp1723
g1041
g1042
sg1043
g1089
sg315
S'c:/marmalade/7.3/s3e/h/s3eTimer.h'
p1724
sbsS'socket.h'
p1725
g289
(g1037
g291
Ntp1726
Rp1727
(dp1728
g1041
g1042
sg1043
g1231
sg315
S'c:/marmalade/7.3/s3e/h/std/sys/socket.h'
p1729
sbsS'IwResource.h'
p1730
g289
(g1037
g291
Ntp1731
Rp1732
(dp1733
g1041
g923
sg1043
g1053
sg315
g995
sbsS'malloc.h'
p1734
g289
(g1037
g291
Ntp1735
Rp1736
(dp1737
g1041
g1042
sg1043
g1067
sg315
S'c:/marmalade/7.3/s3e/h/std/malloc.h'
p1738
sbsS'signal_1.h'
p1739
g289
(g1037
g291
Ntp1740
Rp1741
(dp1742
g1041
g1042
sg1043
g1231
sg315
S'c:/marmalade/7.3/s3e/h/std/sys/signal.h'
p1743
sbsS'cstdarg'
p1744
g289
(g1037
g291
Ntp1745
Rp1746
(dp1747
g1041
g1042
sg1043
g1044
sg315
S'c:/marmalade/7.3/s3e/h/std/c++/cstdarg'
p1748
sbsS'typeinfo'
p1749
g289
(g1037
g291
Ntp1750
Rp1751
(dp1752
g1041
g1042
sg1043
g1044
sg315
S'c:/marmalade/7.3/s3e/h/std/c++/typeinfo'
p1753
sbsS'stdarg.h'
p1754
g289
(g1037
g291
Ntp1755
Rp1756
(dp1757
g1041
g1042
sg1043
g1067
sg315
S'c:/marmalade/7.3/s3e/h/std/stdarg.h'
p1758
sbsS'strstream.h'
p1759
g289
(g1037
g291
Ntp1760
Rp1761
(dp1762
g1041
g1042
sg1043
g1044
sg315
S'c:/marmalade/7.3/s3e/h/std/c++/strstream.h'
p1763
sbsS'shm.h'
p1764
g289
(g1037
g291
Ntp1765
Rp1766
(dp1767
g1041
g1042
sg1043
g1231
sg315
S'c:/marmalade/7.3/s3e/h/std/sys/shm.h'
p1768
sbsS'jpegint.h'
p1769
g289
(g1037
g291
Ntp1770
Rp1771
(dp1772
g1041
g876
sg1043
g1190
sg315
g899
sbsS'set'
p1773
g289
(g1037
g291
Ntp1774
Rp1775
(dp1776
g1041
g1042
sg1043
g1044
sg315
S'c:/marmalade/7.3/s3e/h/std/c++/set'
p1777
sbsS'endian.h'
p1778
g289
(g1037
g291
Ntp1779
Rp1780
(dp1781
g1041
g1042
sg1043
g1067
sg315
S'c:/marmalade/7.3/s3e/h/std/endian.h'
p1782
sbsS'gl2ext.h'
p1783
g289
(g1037
g291
Ntp1784
Rp1785
(dp1786
g1041
g1042
sg1043
g1306
sg315
S'c:/marmalade/7.3/s3e/h/GLES2/gl2ext.h'
p1787
sbsS'setjmp.h'
p1788
g289
(g1037
g291
Ntp1789
Rp1790
(dp1791
g1041
g1042
sg1043
g1067
sg315
S'c:/marmalade/7.3/s3e/h/std/setjmp.h'
p1792
sbsS'mem.h'
p1793
g289
(g1037
g291
Ntp1794
Rp1795
(dp1796
g1041
g1042
sg1043
g1044
sg315
S'c:/marmalade/7.3/s3e/h/std/c++/mem.h'
p1797
sbsS'un.h'
p1798
g289
(g1037
g291
Ntp1799
Rp1800
(dp1801
g1041
g1042
sg1043
g1231
sg315
S'c:/marmalade/7.3/s3e/h/std/sys/un.h'
p1802
sbsS's3eCompression.h'
p1803
g289
(g1037
g291
Ntp1804
Rp1805
(dp1806
g1041
g1042
sg1043
g1089
sg315
S'c:/marmalade/7.3/s3e/h/s3eCompression.h'
p1807
sbsS's3eSound.h'
p1808
g289
(g1037
g291
Ntp1809
Rp1810
(dp1811
g1041
g1042
sg1043
g1089
sg315
S'c:/marmalade/7.3/s3e/h/s3eSound.h'
p1812
sbsS'glob.h'
p1813
g289
(g1037
g291
Ntp1814
Rp1815
(dp1816
g1041
g1042
sg1043
g1067
sg315
S'c:/marmalade/7.3/s3e/h/std/glob.h'
p1817
sbsS'IwClassFactory.h'
p1818
g289
(g1037
g291
Ntp1819
Rp1820
(dp1821
g1041
g923
sg1043
g1053
sg315
g1021
sbsS'file.h'
p1822
g289
(g1037
g291
Ntp1823
Rp1824
(dp1825
g1041
g1042
sg1043
g1231
sg315
S'c:/marmalade/7.3/s3e/h/std/sys/file.h'
p1826
sbsS's3eIOSBackgroundAudio.h'
p1827
g289
(g1037
g291
Ntp1828
Rp1829
(dp1830
g1041
g1042
sg1043
g1205
sg315
S'c:/marmalade/7.3/s3e/h/ext/s3eIOSBackgroundAudio.h'
p1831
sbsS'IwOptimiseThumb.h'
p1832
g289
(g1037
g291
Ntp1833
Rp1834
(dp1835
g1041
g923
sg1043
g1053
sg315
g950
sbsS'cstring'
p1836
g289
(g1037
g291
Ntp1837
Rp1838
(dp1839
g1041
g1042
sg1043
g1044
sg315
S'c:/marmalade/7.3/s3e/h/std/c++/cstring'
p1840
sbsS'OneTap.cpp'
p1841
g289
(g1037
g291
Ntp1842
Rp1843
(dp1844
g1041
g910
sg1043
(lp1845
g906
asg315
g908
sbsS'exception.h'
p1846
g289
(g1037
g291
Ntp1847
Rp1848
(dp1849
g1041
g1042
sg1043
g1044
sg315
S'c:/marmalade/7.3/s3e/h/std/c++/exception.h'
p1850
sbsS's3eCamera.h'
p1851
g289
(g1037
g291
Ntp1852
Rp1853
(dp1854
g1041
g1042
sg1043
g1089
sg315
S'c:/marmalade/7.3/s3e/h/s3eCamera.h'
p1855
sbsS'jconfig.h'
p1856
g289
(g1037
g291
Ntp1857
Rp1858
(dp1859
g1041
g876
sg1043
g1190
sg315
g885
sbsS'clocale'
p1860
g289
(g1037
g291
Ntp1861
Rp1862
(dp1863
g1041
g1042
sg1043
g1044
sg315
S'c:/marmalade/7.3/s3e/h/std/c++/clocale'
p1864
sbsS'memory'
p1865
g289
(g1037
g291
Ntp1866
Rp1867
(dp1868
g1041
g1042
sg1043
g1044
sg315
S'c:/marmalade/7.3/s3e/h/std/c++/memory'
p1869
sbsS'egl.h'
p1870
g289
(g1037
g291
Ntp1871
Rp1872
(dp1873
g1041
g1042
sg1043
g1703
sg315
S'c:/marmalade/7.3/s3e/h/EGL/egl.h'
p1874
sbsS'egl_1.h'
p1875
g289
(g1037
g291
Ntp1876
Rp1877
(dp1878
g1041
g1042
sg1043
g1590
sg315
S'c:/marmalade/7.3/s3e/h/GLES/egl.h'
p1879
sbsS'IwMemManagerDL.h'
p1880
g289
(g1037
g291
Ntp1881
Rp1882
(dp1883
g1041
g923
sg1043
g1053
sg315
g999
sbsS'iwutil.config.txt'
p1884
g289
(g1037
g291
Ntp1885
Rp1886
(dp1887
g1041
g923
sg1043
g1053
sg315
g926
sbsS'deque'
p1888
g289
(g1037
g291
Ntp1889
Rp1890
(dp1891
g1041
g1042
sg1043
g1044
sg315
S'c:/marmalade/7.3/s3e/h/std/c++/deque'
p1892
sbsS'IwString.h'
p1893
g289
(g1037
g291
Ntp1894
Rp1895
(dp1896
g1041
g923
sg1043
g1053
sg315
g944
sbsS's3eCrypto.h'
p1897
g289
(g1037
g291
Ntp1898
Rp1899
(dp1900
g1041
g1042
sg1043
g1089
sg315
S'c:/marmalade/7.3/s3e/h/s3eCrypto.h'
p1901
sbsS'zlib.h'
p1902
g289
(g1037
g291
Ntp1903
Rp1904
(dp1905
g1041
g1031
sg1043
g1415
sg315
g1029
sbsS's3eSMS.h'
p1906
g289
(g1037
g291
Ntp1907
Rp1908
(dp1909
g1041
g1042
sg1043
g1205
sg315
S'c:/marmalade/7.3/s3e/h/ext/s3eSMS.h'
p1910
sbsS'cctype'
p1911
g289
(g1037
g291
Ntp1912
Rp1913
(dp1914
g1041
g1042
sg1043
g1044
sg315
S'c:/marmalade/7.3/s3e/h/std/c++/cctype'
p1915
sbsS'limits.h'
p1916
g289
(g1037
g291
Ntp1917
Rp1918
(dp1919
g1041
g1042
sg1043
g1067
sg315
S'c:/marmalade/7.3/s3e/h/std/limits.h'
p1920
sbsS'istream'
p1921
g289
(g1037
g291
Ntp1922
Rp1923
(dp1924
g1041
g1042
sg1043
g1044
sg315
S'c:/marmalade/7.3/s3e/h/std/c++/istream'
p1925
sbsS'fcntl.h'
p1926
g289
(g1037
g291
Ntp1927
Rp1928
(dp1929
g1041
g1042
sg1043
g1067
sg315
S'c:/marmalade/7.3/s3e/h/std/fcntl.h'
p1930
sbsS'sigcontext.h'
p1931
g289
(g1037
g291
Ntp1932
Rp1933
(dp1934
g1041
g1042
sg1043
g1067
sg315
S'c:/marmalade/7.3/s3e/h/std/sigcontext.h'
p1935
sbsS'iwutil.mkf'
p1936
g289
(g1037
g291
Ntp1937
Rp1938
(dp1939
g1041
g978
sg1043
g1053
sg315
g976
sbsS'csignal'
p1940
g289
(g1037
g291
Ntp1941
Rp1942
(dp1943
g1041
g1042
sg1043
g1044
sg315
S'c:/marmalade/7.3/s3e/h/std/c++/csignal'
p1944
sbsS'ostream.h'
p1945
g289
(g1037
g291
Ntp1946
Rp1947
(dp1948
g1041
g1042
sg1043
g1044
sg315
S'c:/marmalade/7.3/s3e/h/std/c++/ostream.h'
p1949
sbsS'types.h'
p1950
g289
(g1037
g291
Ntp1951
Rp1952
(dp1953
g1041
g1042
sg1043
g1231
sg315
S'c:/marmalade/7.3/s3e/h/std/sys/types.h'
p1954
sbsS'pthread_types.h'
p1955
g289
(g1037
g291
Ntp1956
Rp1957
(dp1958
g1041
g1042
sg1043
g1067
sg315
S'c:/marmalade/7.3/s3e/h/std/pthread_types.h'
p1959
sbsS'ifaddrs.h'
p1960
g289
(g1037
g291
Ntp1961
Rp1962
(dp1963
g1041
g1042
sg1043
g1067
sg315
S'c:/marmalade/7.3/s3e/h/std/ifaddrs.h'
p1964
sbsS'MainMenu.h'
p1965
g289
(g1037
g291
Ntp1966
Rp1967
(dp1968
g1041
g910
sg1043
g1141
sg315
g915
sbsS'memory.h'
p1969
g289
(g1037
g291
Ntp1970
Rp1971
(dp1972
g1041
g1042
sg1043
g1067
sg315
S'c:/marmalade/7.3/s3e/h/std/memory.h'
p1973
sbsS'gl.h'
p1974
g289
(g1037
g291
Ntp1975
Rp1976
(dp1977
g1041
g1042
sg1043
g1590
sg315
S'c:/marmalade/7.3/s3e/h/GLES/gl.h'
p1978
sbsS'getopt.h'
p1979
g289
(g1037
g291
Ntp1980
Rp1981
(dp1982
g1041
g1042
sg1043
g1067
sg315
S'c:/marmalade/7.3/s3e/h/std/getopt.h'
p1983
sbsS'cmath'
p1984
g289
(g1037
g291
Ntp1985
Rp1986
(dp1987
g1041
g1042
sg1043
g1044
sg315
S'c:/marmalade/7.3/s3e/h/std/c++/cmath'
p1988
sbsS'strstream'
p1989
g289
(g1037
g291
Ntp1990
Rp1991
(dp1992
g1041
g1042
sg1043
g1044
sg315
S'c:/marmalade/7.3/s3e/h/std/c++/strstream'
p1993
sbsS'IwOptimiseARM.h'
p1994
g289
(g1037
g291
Ntp1995
Rp1996
(dp1997
g1041
g923
sg1043
g1053
sg315
g954
sbsS'times.h'
p1998
g289
(g1037
g291
Ntp1999
Rp2000
(dp2001
g1041
g1042
sg1043
g1231
sg315
S'c:/marmalade/7.3/s3e/h/std/sys/times.h'
p2002
sbsS'exception'
p2003
g289
(g1037
g291
Ntp2004
Rp2005
(dp2006
g1041
g1042
sg1043
g1044
sg315
S'c:/marmalade/7.3/s3e/h/std/c++/exception'
p2007
sbsS'pthread.h'
p2008
g289
(g1037
g291
Ntp2009
Rp2010
(dp2011
g1041
g1042
sg1043
g1067
sg315
S'c:/marmalade/7.3/s3e/h/std/pthread.h'
p2012
sbsS'IwTextParserITX.h'
p2013
g289
(g1037
g291
Ntp2014
Rp2015
(dp2016
g1041
g923
sg1043
g1053
sg315
g1013
sbsS'rlocks.h'
p2017
g289
(g1037
g291
Ntp2018
Rp2019
(dp2020
g1041
g1042
sg1043
g1044
sg315
S'c:/marmalade/7.3/s3e/h/std/c++/rlocks.h'
p2021
sbsS'functional'
p2022
g289
(g1037
g291
Ntp2023
Rp2024
(dp2025
g1041
g1042
sg1043
g1044
sg315
S'c:/marmalade/7.3/s3e/h/std/c++/functional'
p2026
sbsS'ioctl.h'
p2027
g289
(g1037
g291
Ntp2028
Rp2029
(dp2030
g1041
g1042
sg1043
g1231
sg315
S'c:/marmalade/7.3/s3e/h/std/sys/ioctl.h'
p2031
sbsS'rope'
p2032
g289
(g1037
g291
Ntp2033
Rp2034
(dp2035
g1041
g1042
sg1043
g1044
sg315
S'c:/marmalade/7.3/s3e/h/std/c++/rope'
p2036
sbsS's3eAndroidJNI.h'
p2037
g289
(g1037
g291
Ntp2038
Rp2039
(dp2040
g1041
g1042
sg1043
g1205
sg315
S'c:/marmalade/7.3/s3e/h/ext/s3eAndroidJNI.h'
p2041
sbsS'jinclude.h'
p2042
g289
(g1037
g291
Ntp2043
Rp2044
(dp2045
g1041
g876
sg1043
g1190
sg315
g897
sbsS'IwEvent.h'
p2046
g289
(g1037
g291
Ntp2047
Rp2048
(dp2049
g1041
g923
sg1043
g1053
sg315
g993
sbsS'IwTypes.h'
p2050
g289
(g1037
g291
Ntp2051
Rp2052
(dp2053
g1041
g923
sg1043
g1053
sg315
g997
sbsS's3eSocket.h'
p2054
g289
(g1037
g291
Ntp2055
Rp2056
(dp2057
g1041
g1042
sg1043
g1089
sg315
S'c:/marmalade/7.3/s3e/h/s3eSocket.h'
p2058
sbsS'IwOptimiseSize.h'
p2059
g289
(g1037
g291
Ntp2060
Rp2061
(dp2062
g1041
g923
sg1043
g1053
sg315
g1015
sbsS'IwAutoFile.h'
p2063
g289
(g1037
g291
Ntp2064
Rp2065
(dp2066
g1041
g923
sg1043
g1053
sg315
g952
sbsS'iconv.h'
p2067
g289
(g1037
g291
Ntp2068
Rp2069
(dp2070
g1041
g1042
sg1043
g1067
sg315
S'c:/marmalade/7.3/s3e/h/std/iconv.h'
p2071
sbsS'ipc.h'
p2072
g289
(g1037
g291
Ntp2073
Rp2074
(dp2075
g1041
g1042
sg1043
g1231
sg315
S'c:/marmalade/7.3/s3e/h/std/sys/ipc.h'
p2076
sbsS's3eDevice.h'
p2077
g289
(g1037
g291
Ntp2078
Rp2079
(dp2080
g1041
g1042
sg1043
g1089
sg315
S'c:/marmalade/7.3/s3e/h/s3eDevice.h'
p2081
sbsS'poll_1.h'
p2082
g289
(g1037
g291
Ntp2083
Rp2084
(dp2085
g1041
g1042
sg1043
g1231
sg315
S'c:/marmalade/7.3/s3e/h/std/sys/poll.h'
p2086
sbsS's3eThread.h'
p2087
g289
(g1037
g291
Ntp2088
Rp2089
(dp2090
g1041
g1042
sg1043
g1089
sg315
S'c:/marmalade/7.3/s3e/h/s3eThread.h'
p2091
sbsS'stl_user_config.h'
p2092
g289
(g1037
g291
Ntp2093
Rp2094
(dp2095
g1041
g1042
sg1043
g1044
sg315
S'c:/marmalade/7.3/s3e/h/std/c++/stl_user_config.h'
p2096
sbsS'IwList.h'
p2097
g289
(g1037
g291
Ntp2098
Rp2099
(dp2100
g1041
g923
sg1043
g1053
sg315
g962
sbsS'langinfo.h'
p2101
g289
(g1037
g291
Ntp2102
Rp2103
(dp2104
g1041
g1042
sg1043
g1067
sg315
S'c:/marmalade/7.3/s3e/h/std/langinfo.h'
p2105
sbsS's3edebugHeap.h'
p2106
g289
(g1037
g291
Ntp2107
Rp2108
(dp2109
g1041
g1042
sg1043
g1205
sg315
S'c:/marmalade/7.3/s3e/h/ext/s3edebugHeap.h'
p2110
sbsS'jdct.h'
p2111
g289
(g1037
g291
Ntp2112
Rp2113
(dp2114
g1041
g876
sg1043
g1190
sg315
g889
sbsS'AirplayVersion.h'
p2115
g289
(g1037
g291
Ntp2116
Rp2117
(dp2118
g1041
g1042
sg1043
g1089
sg315
S'c:/marmalade/7.3/s3e/h/AirplayVersion.h'
p2119
sbsS'jchuff.h'
p2120
g289
(g1037
g291
Ntp2121
Rp2122
(dp2123
g1041
g876
sg1043
g1190
sg315
g895
sbsS'IwProfileMenu.h'
p2124
g289
(g1037
g291
Ntp2125
Rp2126
(dp2127
g1041
g923
sg1043
g1053
sg315
g968
sbsS's3eSoundRecord.h'
p2128
g289
(g1037
g291
Ntp2129
Rp2130
(dp2131
g1041
g1042
sg1043
g1089
sg315
S'c:/marmalade/7.3/s3e/h/s3eSoundRecord.h'
p2132
sbsS'gl2extimg.h'
p2133
g289
(g1037
g291
Ntp2134
Rp2135
(dp2136
g1041
g1042
sg1043
g1306
sg315
S'c:/marmalade/7.3/s3e/h/GLES2/gl2extimg.h'
p2137
sbsS'IwFibre.h'
p2138
g289
(g1037
g291
Ntp2139
Rp2140
(dp2141
g1041
g923
sg1043
g1053
sg315
g987
sbsS's3eConfig.h'
p2142
g289
(g1037
g291
Ntp2143
Rp2144
(dp2145
g1041
g1042
sg1043
g1089
sg315
S'c:/marmalade/7.3/s3e/h/s3eConfig.h'
p2146
sbsS'IwHashString.h'
p2147
g289
(g1037
g291
Ntp2148
Rp2149
(dp2150
g1041
g923
sg1043
g1053
sg315
g936
sbsS'stat.h'
p2151
g289
(g1037
g291
Ntp2152
Rp2153
(dp2154
g1041
g1042
sg1043
g1231
sg315
S'c:/marmalade/7.3/s3e/h/std/sys/stat.h'
p2155
sbsS's3eVersion.h'
p2156
g289
(g1037
g291
Ntp2157
Rp2158
(dp2159
g1041
g1042
sg1043
g1089
sg315
S'c:/marmalade/7.3/s3e/h/s3eVersion.h'
p2160
sbsS'MarmaladeVersion.h'
p2161
g289
(g1037
g291
Ntp2162
Rp2163
(dp2164
g1041
g1042
sg1043
g1089
sg315
S'c:/marmalade/7.3/s3e/h/MarmaladeVersion.h'
p2165
sbsS'utility'
p2166
g289
(g1037
g291
Ntp2167
Rp2168
(dp2169
g1041
g1042
sg1043
g1044
sg315
S'c:/marmalade/7.3/s3e/h/std/c++/utility'
p2170
sbsS'syslog.h'
p2171
g289
(g1037
g291
Ntp2172
Rp2173
(dp2174
g1041
g1042
sg1043
g1067
sg315
S'c:/marmalade/7.3/s3e/h/std/syslog.h'
p2175
sbsS'IwUtilInitTerm.h'
p2176
g289
(g1037
g291
Ntp2177
Rp2178
(dp2179
g1041
g923
sg1043
g1053
sg315
g928
sbsS'byteswap.h'
p2180
g289
(g1037
g291
Ntp2181
Rp2182
(dp2183
g1041
g1042
sg1043
g1067
sg315
S'c:/marmalade/7.3/s3e/h/std/byteswap.h'
p2184
sbsS'ios.h'
p2185
g289
(g1037
g291
Ntp2186
Rp2187
(dp2188
g1041
g1042
sg1043
g1044
sg315
S'c:/marmalade/7.3/s3e/h/std/c++/ios.h'
p2189
sbsS'bitset'
p2190
g289
(g1037
g291
Ntp2191
Rp2192
(dp2193
g1041
g1042
sg1043
g1044
sg315
S'c:/marmalade/7.3/s3e/h/std/c++/bitset'
p2194
sbsS'IwImageHelper.h'
p2195
g289
(g1037
g291
Ntp2196
Rp2197
(dp2198
g1041
g923
sg1043
g1053
sg315
g942
sbsS's3eKeyboard.h'
p2199
g289
(g1037
g291
Ntp2200
Rp2201
(dp2202
g1041
g1042
sg1043
g1089
sg315
S'c:/marmalade/7.3/s3e/h/s3eKeyboard.h'
p2203
sbsS'pthread_1.h'
p2204
g289
(g1037
g291
Ntp2205
Rp2206
(dp2207
g1041
g1042
sg1043
g1044
sg315
S'c:/marmalade/7.3/s3e/h/std/c++/pthread.h'
p2208
sbsS'IwMemBucket.h'
p2209
g289
(g1037
g291
Ntp2210
Rp2211
(dp2212
g1041
g923
sg1043
g1053
sg315
g979
sbsS's3e.mkf'
p2213
g289
(g1037
g291
Ntp2214
Rp2215
(dp2216
g1041
(dp2217
sg1043
g1089
sg315
S'c:/marmalade/7.3/s3e/s3e.mkf'
p2218
sbsS'hash_set'
p2219
g289
(g1037
g291
Ntp2220
Rp2221
(dp2222
g1041
g1042
sg1043
g1044
sg315
S'c:/marmalade/7.3/s3e/h/std/c++/hash_set'
p2223
sbsS's3eTypes.h'
p2224
g289
(g1037
g291
Ntp2225
Rp2226
(dp2227
g1041
g1042
sg1043
g1089
sg315
S'c:/marmalade/7.3/s3e/h/s3eTypes.h'
p2228
sbsS'complex'
p2229
g289
(g1037
g291
Ntp2230
Rp2231
(dp2232
g1041
g1042
sg1043
g1044
sg315
S'c:/marmalade/7.3/s3e/h/std/c++/complex'
p2233
sbsS'jmorecfg.h'
p2234
g289
(g1037
g291
Ntp2235
Rp2236
(dp2237
g1041
g876
sg1043
g1190
sg315
g893
sbsS'eglplatform.h'
p2238
g289
(g1037
g291
Ntp2239
Rp2240
(dp2241
g1041
g1042
sg1043
g1703
sg315
S'c:/marmalade/7.3/s3e/h/EGL/eglplatform.h'
p2242
sbsS'signal_2.h'
p2243
g289
(g1037
g291
Ntp2244
Rp2245
(dp2246
g1041
g1042
sg1043
g1044
sg315
S'c:/marmalade/7.3/s3e/h/std/c++/signal.h'
p2247
sbsS'stdbool.h'
p2248
g289
(g1037
g291
Ntp2249
Rp2250
(dp2251
g1041
g1042
sg1043
g1067
sg315
S'c:/marmalade/7.3/s3e/h/std/stdbool.h'
p2252
sbsS's3e.icf'
p2253
g289
(g1037
g291
Ntp2254
Rp2255
(dp2256
g1041
g1042
sg1043
g1089
sg315
S'c:/marmalade/7.3/s3e/s3e.icf'
p2257
sbsS'math_gcc.h'
p2258
g289
(g1037
g291
Ntp2259
Rp2260
(dp2261
g1041
g1042
sg1043
g1067
sg315
S'c:/marmalade/7.3/s3e/h/std/math_gcc.h'
p2262
sbsS's3eMemory.h'
p2263
g289
(g1037
g291
Ntp2264
Rp2265
(dp2266
g1041
g1042
sg1043
g1089
sg315
S'c:/marmalade/7.3/s3e/h/s3eMemory.h'
p2267
sbsS'map'
p2268
g289
(g1037
g291
Ntp2269
Rp2270
(dp2271
g1041
g1042
sg1043
g1044
sg315
S'c:/marmalade/7.3/s3e/h/std/c++/map'
p2272
sbsS'sem.h'
p2273
g289
(g1037
g291
Ntp2274
Rp2275
(dp2276
g1041
g1042
sg1043
g1231
sg315
S'c:/marmalade/7.3/s3e/h/std/sys/sem.h'
p2277
sbsS'IwOptimiseSpeed.h'
p2278
g289
(g1037
g291
Ntp2279
Rp2280
(dp2281
g1041
g923
sg1043
g1053
sg315
g946
sbsS's3eLicense.h'
p2282
g289
(g1037
g291
Ntp2283
Rp2284
(dp2285
g1041
g1042
sg1043
g1089
sg315
S'c:/marmalade/7.3/s3e/h/s3eLicense.h'
p2286
sbsS'stdio.h'
p2287
g289
(g1037
g291
Ntp2288
Rp2289
(dp2290
g1041
g1042
sg1043
g1067
sg315
S'c:/marmalade/7.3/s3e/h/std/stdio.h'
p2291
sbsS's3eFile.h'
p2292
g289
(g1037
g291
Ntp2293
Rp2294
(dp2295
g1041
g1042
sg1043
g1089
sg315
S'c:/marmalade/7.3/s3e/h/s3eFile.h'
p2296
sbsS'jmemsys.h'
p2297
g289
(g1037
g291
Ntp2298
Rp2299
(dp2300
g1041
g876
sg1043
g1190
sg315
g877
sbsS'ios'
p2301
g289
(g1037
g291
Ntp2302
Rp2303
(dp2304
g1041
g1042
sg1043
g1044
sg315
S'c:/marmalade/7.3/s3e/h/std/c++/ios'
p2305
sbsS'gl3platform.h'
p2306
g289
(g1037
g291
Ntp2307
Rp2308
(dp2309
g1041
g1042
sg1043
g1543
sg315
S'c:/marmalade/7.3/s3e/h/GLES3/gl3platform.h'
p2310
sbsS'msl_string.h'
p2311
g289
(g1037
g291
Ntp2312
Rp2313
(dp2314
g1041
g1042
sg1043
g1044
sg315
S'c:/marmalade/7.3/s3e/h/std/c++/msl_string.h'
p2315
sbsS'select.h'
p2316
g289
(g1037
g291
Ntp2317
Rp2318
(dp2319
g1041
g1042
sg1043
g1231
sg315
S'c:/marmalade/7.3/s3e/h/std/sys/select.h'
p2320
sbsS'cerrno'
p2321
g289
(g1037
g291
Ntp2322
Rp2323
(dp2324
g1041
g1042
sg1043
g1044
sg315
S'c:/marmalade/7.3/s3e/h/std/c++/cerrno'
p2325
sbsS'slist'
p2326
g289
(g1037
g291
Ntp2327
Rp2328
(dp2329
g1041
g1042
sg1043
g1044
sg315
S'c:/marmalade/7.3/s3e/h/std/c++/slist'
p2330
sbsS'cstdlib'
p2331
g289
(g1037
g291
Ntp2332
Rp2333
(dp2334
g1041
g1042
sg1043
g1044
sg315
S'c:/marmalade/7.3/s3e/h/std/c++/cstdlib'
p2335
sbsS's3eLocation.h'
p2336
g289
(g1037
g291
Ntp2337
Rp2338
(dp2339
g1041
g1042
sg1043
g1089
sg315
S'c:/marmalade/7.3/s3e/h/s3eLocation.h'
p2340
sbsS'zlib.mkf'
p2341
g289
(g1037
g291
Ntp2342
Rp2343
(dp2344
g1041
g1027
sg1043
(lp2345
g1023
asg315
g1025
sbsS'resource.h'
p2346
g289
(g1037
g291
Ntp2347
Rp2348
(dp2349
g1041
g1042
sg1043
g1231
sg315
S'c:/marmalade/7.3/s3e/h/std/sys/resource.h'
p2350
sbsS'pwd.h'
p2351
g289
(g1037
g291
Ntp2352
Rp2353
(dp2354
g1041
g1042
sg1043
g1067
sg315
S'c:/marmalade/7.3/s3e/h/std/pwd.h'
p2355
sbsS'signal.h'
p2356
g289
(g1037
g291
Ntp2357
Rp2358
(dp2359
g1041
g1042
sg1043
g1067
sg315
S'c:/marmalade/7.3/s3e/h/std/signal.h'
p2360
sbsS'csetjmp'
p2361
g289
(g1037
g291
Ntp2362
Rp2363
(dp2364
g1041
g1042
sg1043
g1044
sg315
S'c:/marmalade/7.3/s3e/h/std/c++/csetjmp'
p2365
sbsS's3eLibrary.h'
p2366
g289
(g1037
g291
Ntp2367
Rp2368
(dp2369
g1041
g1042
sg1043
g1205
sg315
S'c:/marmalade/7.3/s3e/h/ext/s3eLibrary.h'
p2370
sbsS'libpng.mkf'
p2371
g289
(g1037
g291
Ntp2372
Rp2373
(dp2374
g1041
g870
sg1043
(lp2375
g859
asg315
g868
sbsS'IwMemBucketHelpers.h'
p2376
g289
(g1037
g291
Ntp2377
Rp2378
(dp2379
g1041
g923
sg1043
g1053
sg315
g1011
sbsS's3eHash.h'
p2380
g289
(g1037
g291
Ntp2381
Rp2382
(dp2383
g1041
g1042
sg1043
g1089
sg315
S'c:/marmalade/7.3/s3e/h/s3eHash.h'
p2384
sbsS'new.h'
p2385
g289
(g1037
g291
Ntp2386
Rp2387
(dp2388
g1041
g1042
sg1043
g1044
sg315
S'c:/marmalade/7.3/s3e/h/std/c++/new.h'
p2389
sbsS'math.h'
p2390
g289
(g1037
g291
Ntp2391
Rp2392
(dp2393
g1041
g1042
sg1043
g1067
sg315
S'c:/marmalade/7.3/s3e/h/std/math.h'
p2394
sbsS's3eClipboard.h'
p2395
g289
(g1037
g291
Ntp2396
Rp2397
(dp2398
g1041
g1042
sg1043
g1089
sg315
S'c:/marmalade/7.3/s3e/h/s3eClipboard.h'
p2399
sbsS'streambuf'
p2400
g289
(g1037
g291
Ntp2401
Rp2402
(dp2403
g1041
g1042
sg1043
g1044
sg315
S'c:/marmalade/7.3/s3e/h/std/c++/streambuf'
p2404
sbsS's3eDebug.h'
p2405
g289
(g1037
g291
Ntp2406
Rp2407
(dp2408
g1041
g1042
sg1043
g1089
sg315
S'c:/marmalade/7.3/s3e/h/s3eDebug.h'
p2409
sbsS's3eEMail.h'
p2410
g289
(g1037
g291
Ntp2411
Rp2412
(dp2413
g1041
g1042
sg1043
g1205
sg315
S'c:/marmalade/7.3/s3e/h/ext/s3eEMail.h'
p2414
sbsS'uio.h'
p2415
g289
(g1037
g291
Ntp2416
Rp2417
(dp2418
g1041
g1042
sg1043
g1231
sg315
S'c:/marmalade/7.3/s3e/h/std/sys/uio.h'
p2419
sbsS'glext.h'
p2420
g289
(g1037
g291
Ntp2421
Rp2422
(dp2423
g1041
g1042
sg1043
g1590
sg315
S'c:/marmalade/7.3/s3e/h/GLES/glext.h'
p2424
sbsS's3eVideo.h'
p2425
g289
(g1037
g291
Ntp2426
Rp2427
(dp2428
g1041
g1042
sg1043
g1089
sg315
S'c:/marmalade/7.3/s3e/h/s3eVideo.h'
p2429
sbsS'pngconf.h'
p2430
g289
(g1037
g291
Ntp2431
Rp2432
(dp2433
g1041
g865
sg1043
g1585
sg315
g863
sbsS'IwUncopyable.h'
p2434
g289
(g1037
g291
Ntp2435
Rp2436
(dp2437
g1041
g923
sg1043
g1053
sg315
g930
sbsS'gl3.h'
p2438
g289
(g1037
g291
Ntp2439
Rp2440
(dp2441
g1041
g1042
sg1043
g1543
sg315
S'c:/marmalade/7.3/s3e/h/GLES3/gl3.h'
p2442
sbsS'typeinfo.h'
p2443
g289
(g1037
g291
Ntp2444
Rp2445
(dp2446
g1041
g1042
sg1043
g1044
sg315
S'c:/marmalade/7.3/s3e/h/std/c++/typeinfo.h'
p2447
sbsS'IwMenu.h'
p2448
g289
(g1037
g291
Ntp2449
Rp2450
(dp2451
g1041
g923
sg1043
g1053
sg315
g964
sbssS'juice_build_type'
p2452
g4
sS'tests'
p2453
(lp2454
sS'project_name'
p2455
g297
sS'root_file'
p2456
g118
sS'current_root'
p2457
S'c:/Users/Randy/Documents/MarmaladeGames/OneTap'
p2458
sS'dependencies'
p2459
(lp2460
sS'include_paths'
p2461
(lp2462
S'c:/marmalade/7.3/modules/iwutil/h'
p2463
aS'c:/marmalade/7.3/modules/third_party/libjpeg/h'
p2464
aS'c:/marmalade/7.3/modules/third_party/zlib/h'
p2465
aS'c:/marmalade/7.3/modules/third_party/libpng/h'
p2466
aS'c:/marmalade/7.3/s3e/h'
p2467
aS'c:/marmalade/7.3/s3e/h/ext'
p2468
aS'c:/marmalade/7.3/s3e/h/std'
p2469
aS'c:/marmalade/7.3/s3e/h/std/c++'
p2470
aS'c:/marmalade/7.3/s3e/h/ext_legacy'
p2471
aS'c:/marmalade/7.3/s3e/h/legacy'
p2472
asS'weak_frameworks'
p2473
(lp2474
sS'extprojects'
p2475
(dp2476
sg461
(dp2477
g455
(lp2478
(g77
S'.'
p2479
I0
tp2480
assS'macro_types'
p2481
(dp2482
g426
I1
sg427
I0
sg428
I0
sg429
I0
sg430
I0
sg431
I0
sg432
I0
sg433
I1
sg434
I0
sg435
I0
sg437
I0
sg438
I0
sg439
I0
sg441
I01
sg442
I1
sg443
I0
sg444
I0
ssS'commands'
p2483
(lp2484
sg463
(g852
S'VC12X'
p2485
S'X86ARM'
p2486
tp2487
sS'build_libs'
p2488
(dp2489
sg465
g0
sS'frameworks'
p2490
(lp2491
sS'environ'
p2492
(dp2493
sS'target_name_debug'
p2494
g297
sS'builders'
p2495
(dp2496
g455
(dp2497
S'.S'
p2498
(dp2499
S'rvct'
p2500
(lp2501
S'.obj'
p2502
aS'echo ARM Assembling(RVCT) ${SOURCE}...'
p2503
aS'c:/marmalade/7.3/s3e\\rvct\\bin\\armasm -o ${TARGET} ${SOURCE}'
p2504
asS'gcc'
p2505
(lp2506
g2502
aS'echo ARM Assembling(GCC) ${SOURCE}...'
p2507
aS'c:/marmalade/7.3/s3e\\gcc\\bin\\arm-none-eabi-gcc -c -o ${TARGET} ${SOURCE}'
p2508
asS'ppu'
p2509
(lp2510
S'.a'
p2511
aS'echo PPU Assembling(SNC) ${SOURCE}...'
p2512
aS'c:/marmalade/7.3/s3e\\rvct\\bin\\armasm -o ${TARGET} ${SOURCE}'
p2513
assS'.s'
p2514
g2499
sssS'extproject_names'
p2515
(lp2516
sbtp2517
.